; Listing generated by Microsoft (R) Optimizing Compiler Version 16.00.30319.01 

	TITLE	E:\dus\branches\my_demo_code\center_storge\smbclient_win\smbclient_win\smbclient_win.cpp
	.686P
	.XMM
	include listing.inc
	.model	flat

INCLUDELIB MSVCRTD
INCLUDELIB OLDNAMES

PUBLIC	??_C@_07KJLOKDKB@TypeLib?$AA@			; `string'
PUBLIC	??_C@_08KEKAJNJI@Software?$AA@			; `string'
PUBLIC	??_C@_06FDHFNJBJ@SYSTEM?$AA@			; `string'
PUBLIC	??_C@_08LOPHEHKG@SECURITY?$AA@			; `string'
PUBLIC	??_C@_03DDIMFGBA@SAM?$AA@			; `string'
PUBLIC	??_C@_04IHBFOLAC@Mime?$AA@			; `string'
PUBLIC	??_C@_08PPIOJEA@Hardware?$AA@			; `string'
PUBLIC	??_C@_09JKPGEJCH@Interface?$AA@			; `string'
PUBLIC	??_C@_08PICKODJL@FileType?$AA@			; `string'
PUBLIC	??_C@_0BF@HDDNNDFH@Component?5Categories?$AA@	; `string'
PUBLIC	??_C@_05GIBEAPNE@CLSID?$AA@			; `string'
PUBLIC	??_C@_05PDIKPLII@AppID?$AA@			; `string'
PUBLIC	??_C@_06JBKGCNBB@Delete?$AA@			; `string'
PUBLIC	??_C@_08KAAPDIAN@NoRemove?$AA@			; `string'
PUBLIC	??_C@_0M@DBGDLGLL@ForceRemove?$AA@		; `string'
PUBLIC	??_C@_03LAIAPFCB@Val?$AA@			; `string'
PUBLIC	??_C@_01HMGJMAIH@B?$AA@				; `string'
PUBLIC	??_C@_01CKDDGHAB@D?$AA@				; `string'
PUBLIC	??_C@_01PLPBNMEI@M?$AA@				; `string'
PUBLIC	??_C@_01CPLAODJH@S?$AA@				; `string'
PUBLIC	?_pAtlAutoThreadModule@ATL@@3PAUIAtlAutoThreadModule@1@A ; ATL::_pAtlAutoThreadModule
PUBLIC	?_Min@?$AtlLimits@H@ATL@@2HB			; ATL::AtlLimits<int>::_Min
PUBLIC	?_Max@?$AtlLimits@H@ATL@@2HB			; ATL::AtlLimits<int>::_Max
PUBLIC	?_Min@?$AtlLimits@I@ATL@@2IB			; ATL::AtlLimits<unsigned int>::_Min
PUBLIC	?_Max@?$AtlLimits@I@ATL@@2IB			; ATL::AtlLimits<unsigned int>::_Max
PUBLIC	?_Min@?$AtlLimits@J@ATL@@2JB			; ATL::AtlLimits<long>::_Min
PUBLIC	?_Max@?$AtlLimits@J@ATL@@2JB			; ATL::AtlLimits<long>::_Max
PUBLIC	?_Min@?$AtlLimits@K@ATL@@2KB			; ATL::AtlLimits<unsigned long>::_Min
PUBLIC	?_Max@?$AtlLimits@K@ATL@@2KB			; ATL::AtlLimits<unsigned long>::_Max
PUBLIC	?_Min@?$AtlLimits@_J@ATL@@2_JB			; ATL::AtlLimits<__int64>::_Min
PUBLIC	?_Max@?$AtlLimits@_J@ATL@@2_JB			; ATL::AtlLimits<__int64>::_Max
PUBLIC	?_Min@?$AtlLimits@_K@ATL@@2_KB			; ATL::AtlLimits<unsigned __int64>::_Min
PUBLIC	?_Max@?$AtlLimits@_K@ATL@@2_KB			; ATL::AtlLimits<unsigned __int64>::_Max
PUBLIC	?s_pfnPrevHook@CNoUIAssertHook@ATL@@0P6AHHPADPAH@ZA ; ATL::CNoUIAssertHook::s_pfnPrevHook
PUBLIC	?m_bInitFailed@CAtlBaseModule@ATL@@2_NA		; ATL::CAtlBaseModule::m_bInitFailed
PUBLIC	?VT@?$CVarTypeInfo@D@ATL@@2GB			; ATL::CVarTypeInfo<char>::VT
PUBLIC	?pmField@?$CVarTypeInfo@D@ATL@@2QQtagVARIANT@@DQ3@ ; ATL::CVarTypeInfo<char>::pmField
PUBLIC	?VT@?$CVarTypeInfo@E@ATL@@2GB			; ATL::CVarTypeInfo<unsigned char>::VT
PUBLIC	?pmField@?$CVarTypeInfo@E@ATL@@2QQtagVARIANT@@EQ3@ ; ATL::CVarTypeInfo<unsigned char>::pmField
PUBLIC	?VT@?$CVarTypeInfo@PAD@ATL@@2GB			; ATL::CVarTypeInfo<char *>::VT
PUBLIC	?pmField@?$CVarTypeInfo@PAD@ATL@@2QQtagVARIANT@@PADQ3@ ; ATL::CVarTypeInfo<char *>::pmField
PUBLIC	?VT@?$CVarTypeInfo@PAE@ATL@@2GB			; ATL::CVarTypeInfo<unsigned char *>::VT
PUBLIC	?pmField@?$CVarTypeInfo@PAE@ATL@@2QQtagVARIANT@@PAEQ3@ ; ATL::CVarTypeInfo<unsigned char *>::pmField
PUBLIC	?VT@?$CVarTypeInfo@F@ATL@@2GB			; ATL::CVarTypeInfo<short>::VT
PUBLIC	?pmField@?$CVarTypeInfo@F@ATL@@2QQtagVARIANT@@FQ3@ ; ATL::CVarTypeInfo<short>::pmField
PUBLIC	?VT@?$CVarTypeInfo@PAF@ATL@@2GB			; ATL::CVarTypeInfo<short *>::VT
PUBLIC	?pmField@?$CVarTypeInfo@PAF@ATL@@2QQtagVARIANT@@PAFQ3@ ; ATL::CVarTypeInfo<short *>::pmField
PUBLIC	?VT@?$CVarTypeInfo@G@ATL@@2GB			; ATL::CVarTypeInfo<unsigned short>::VT
PUBLIC	?pmField@?$CVarTypeInfo@G@ATL@@2QQtagVARIANT@@GQ3@ ; ATL::CVarTypeInfo<unsigned short>::pmField
PUBLIC	?VT@?$CVarTypeInfo@PAG@ATL@@2GB			; ATL::CVarTypeInfo<unsigned short *>::VT
PUBLIC	?pmField@?$CVarTypeInfo@PAG@ATL@@2QQtagVARIANT@@PAGQ3@ ; ATL::CVarTypeInfo<unsigned short *>::pmField
PUBLIC	?VT@?$CVarTypeInfo@H@ATL@@2GB			; ATL::CVarTypeInfo<int>::VT
PUBLIC	?pmField@?$CVarTypeInfo@H@ATL@@2QQtagVARIANT@@HQ3@ ; ATL::CVarTypeInfo<int>::pmField
PUBLIC	?VT@?$CVarTypeInfo@PAH@ATL@@2GB			; ATL::CVarTypeInfo<int *>::VT
PUBLIC	?pmField@?$CVarTypeInfo@PAH@ATL@@2QQtagVARIANT@@PAHQ3@ ; ATL::CVarTypeInfo<int *>::pmField
PUBLIC	?VT@?$CVarTypeInfo@I@ATL@@2GB			; ATL::CVarTypeInfo<unsigned int>::VT
PUBLIC	?pmField@?$CVarTypeInfo@I@ATL@@2QQtagVARIANT@@IQ3@ ; ATL::CVarTypeInfo<unsigned int>::pmField
PUBLIC	?VT@?$CVarTypeInfo@PAI@ATL@@2GB			; ATL::CVarTypeInfo<unsigned int *>::VT
PUBLIC	?pmField@?$CVarTypeInfo@PAI@ATL@@2QQtagVARIANT@@PAIQ3@ ; ATL::CVarTypeInfo<unsigned int *>::pmField
PUBLIC	?VT@?$CVarTypeInfo@J@ATL@@2GB			; ATL::CVarTypeInfo<long>::VT
PUBLIC	?pmField@?$CVarTypeInfo@J@ATL@@2QQtagVARIANT@@JQ3@ ; ATL::CVarTypeInfo<long>::pmField
PUBLIC	?VT@?$CVarTypeInfo@PAJ@ATL@@2GB			; ATL::CVarTypeInfo<long *>::VT
PUBLIC	?pmField@?$CVarTypeInfo@PAJ@ATL@@2QQtagVARIANT@@PAJQ3@ ; ATL::CVarTypeInfo<long *>::pmField
PUBLIC	?VT@?$CVarTypeInfo@K@ATL@@2GB			; ATL::CVarTypeInfo<unsigned long>::VT
PUBLIC	?pmField@?$CVarTypeInfo@K@ATL@@2QQtagVARIANT@@KQ3@ ; ATL::CVarTypeInfo<unsigned long>::pmField
PUBLIC	?VT@?$CVarTypeInfo@PAK@ATL@@2GB			; ATL::CVarTypeInfo<unsigned long *>::VT
PUBLIC	?pmField@?$CVarTypeInfo@PAK@ATL@@2QQtagVARIANT@@PAKQ3@ ; ATL::CVarTypeInfo<unsigned long *>::pmField
PUBLIC	?VT@?$CVarTypeInfo@_J@ATL@@2GB			; ATL::CVarTypeInfo<__int64>::VT
PUBLIC	?pmField@?$CVarTypeInfo@_J@ATL@@2QQtagVARIANT@@_JQ3@ ; ATL::CVarTypeInfo<__int64>::pmField
PUBLIC	?VT@?$CVarTypeInfo@PA_J@ATL@@2GB		; ATL::CVarTypeInfo<__int64 *>::VT
PUBLIC	?pmField@?$CVarTypeInfo@PA_J@ATL@@2QQtagVARIANT@@PA_JQ3@ ; ATL::CVarTypeInfo<__int64 *>::pmField
PUBLIC	?VT@?$CVarTypeInfo@_K@ATL@@2GB			; ATL::CVarTypeInfo<unsigned __int64>::VT
PUBLIC	?pmField@?$CVarTypeInfo@_K@ATL@@2QQtagVARIANT@@_KQ3@ ; ATL::CVarTypeInfo<unsigned __int64>::pmField
PUBLIC	?VT@?$CVarTypeInfo@PA_K@ATL@@2GB		; ATL::CVarTypeInfo<unsigned __int64 *>::VT
PUBLIC	?pmField@?$CVarTypeInfo@PA_K@ATL@@2QQtagVARIANT@@PA_KQ3@ ; ATL::CVarTypeInfo<unsigned __int64 *>::pmField
PUBLIC	?VT@?$CVarTypeInfo@M@ATL@@2GB			; ATL::CVarTypeInfo<float>::VT
PUBLIC	?pmField@?$CVarTypeInfo@M@ATL@@2QQtagVARIANT@@MQ3@ ; ATL::CVarTypeInfo<float>::pmField
PUBLIC	?VT@?$CVarTypeInfo@PAM@ATL@@2GB			; ATL::CVarTypeInfo<float *>::VT
PUBLIC	?pmField@?$CVarTypeInfo@PAM@ATL@@2QQtagVARIANT@@PAMQ3@ ; ATL::CVarTypeInfo<float *>::pmField
PUBLIC	?VT@?$CVarTypeInfo@N@ATL@@2GB			; ATL::CVarTypeInfo<double>::VT
PUBLIC	?pmField@?$CVarTypeInfo@N@ATL@@2QQtagVARIANT@@NQ3@ ; ATL::CVarTypeInfo<double>::pmField
PUBLIC	?VT@?$CVarTypeInfo@PAN@ATL@@2GB			; ATL::CVarTypeInfo<double *>::VT
PUBLIC	?pmField@?$CVarTypeInfo@PAN@ATL@@2QQtagVARIANT@@PANQ3@ ; ATL::CVarTypeInfo<double *>::pmField
PUBLIC	?VT@?$CVarTypeInfo@PAUtagVARIANT@@@ATL@@2GB	; ATL::CVarTypeInfo<tagVARIANT *>::VT
PUBLIC	?VT@?$CVarTypeInfo@PA_W@ATL@@2GB		; ATL::CVarTypeInfo<wchar_t *>::VT
PUBLIC	?pmField@?$CVarTypeInfo@PA_W@ATL@@2QQtagVARIANT@@PA_WQ3@ ; ATL::CVarTypeInfo<wchar_t *>::pmField
PUBLIC	?VT@?$CVarTypeInfo@PAPA_W@ATL@@2GB		; ATL::CVarTypeInfo<wchar_t * *>::VT
PUBLIC	?pmField@?$CVarTypeInfo@PAPA_W@ATL@@2QQtagVARIANT@@PAPA_WQ3@ ; ATL::CVarTypeInfo<wchar_t * *>::pmField
PUBLIC	?VT@?$CVarTypeInfo@PAUIUnknown@@@ATL@@2GB	; ATL::CVarTypeInfo<IUnknown *>::VT
PUBLIC	?pmField@?$CVarTypeInfo@PAUIUnknown@@@ATL@@2QQtagVARIANT@@PAUIUnknown@@Q3@ ; ATL::CVarTypeInfo<IUnknown *>::pmField
PUBLIC	?VT@?$CVarTypeInfo@PAPAUIUnknown@@@ATL@@2GB	; ATL::CVarTypeInfo<IUnknown * *>::VT
PUBLIC	?pmField@?$CVarTypeInfo@PAPAUIUnknown@@@ATL@@2QQtagVARIANT@@PAPAUIUnknown@@Q3@ ; ATL::CVarTypeInfo<IUnknown * *>::pmField
PUBLIC	?VT@?$CVarTypeInfo@PAUIDispatch@@@ATL@@2GB	; ATL::CVarTypeInfo<IDispatch *>::VT
PUBLIC	?pmField@?$CVarTypeInfo@PAUIDispatch@@@ATL@@2QQtagVARIANT@@PAUIDispatch@@Q3@ ; ATL::CVarTypeInfo<IDispatch *>::pmField
PUBLIC	?VT@?$CVarTypeInfo@PAPAUIDispatch@@@ATL@@2GB	; ATL::CVarTypeInfo<IDispatch * *>::VT
PUBLIC	?pmField@?$CVarTypeInfo@PAPAUIDispatch@@@ATL@@2QQtagVARIANT@@PAPAUIDispatch@@Q3@ ; ATL::CVarTypeInfo<IDispatch * *>::pmField
PUBLIC	?VT@?$CVarTypeInfo@TtagCY@@@ATL@@2GB		; ATL::CVarTypeInfo<tagCY>::VT
PUBLIC	?pmField@?$CVarTypeInfo@TtagCY@@@ATL@@2QQtagVARIANT@@TtagCY@@Q3@ ; ATL::CVarTypeInfo<tagCY>::pmField
PUBLIC	?VT@?$CVarTypeInfo@PATtagCY@@@ATL@@2GB		; ATL::CVarTypeInfo<tagCY *>::VT
PUBLIC	?pmField@?$CVarTypeInfo@PATtagCY@@@ATL@@2QQtagVARIANT@@PATtagCY@@Q3@ ; ATL::CVarTypeInfo<tagCY *>::pmField
PUBLIC	_LIBID_ATLLib
PUBLIC	_CLSID_Registrar
PUBLIC	_IID_IRegistrar
PUBLIC	_IID_IAxWinHostWindow
PUBLIC	_IID_IAxWinAmbientDispatch
PUBLIC	_IID_IInternalConnection
PUBLIC	_IID_IDocHostUIHandlerDispatch
PUBLIC	_IID_IAxWinHostWindowLic
PUBLIC	_IID_IAxWinAmbientDispatchEx
PUBLIC	___pobjMapEntryFirst
PUBLIC	___pobjMapEntryLast
PUBLIC	?_pPerfRegFunc@ATL@@3P6AJPAUHINSTANCE__@@@ZA	; ATL::_pPerfRegFunc
PUBLIC	?_pPerfUnRegFunc@ATL@@3P6AJXZA			; ATL::_pPerfUnRegFunc
PUBLIC	?_AtlRegisterPerUser@ATL@@3_NA			; ATL::_AtlRegisterPerUser
PUBLIC	?_pAtlModule@ATL@@3PAVCAtlModule@1@A		; ATL::_pAtlModule
PUBLIC	?m_libid@CAtlModule@ATL@@2U_GUID@@A		; ATL::CAtlModule::m_libid
PUBLIC	?_pModule@ATL@@3PAVCComModule@1@A		; ATL::_pModule
PUBLIC	?ATL_CREATE_OBJECT@CComApartment@ATL@@2IA	; ATL::CComApartment::ATL_CREATE_OBJECT
PUBLIC	?MAX_VALUE@CRegParser@ATL@@1HB			; ATL::CRegParser::MAX_VALUE
PUBLIC	?MAX_TYPE@CRegParser@ATL@@1HB			; ATL::CRegParser::MAX_TYPE
PUBLIC	?rgszNeverDelete@CRegParser@ATL@@1QBQBDB	; ATL::CRegParser::rgszNeverDelete
PUBLIC	?cbNeverDelete@CRegParser@ATL@@1HB		; ATL::CRegParser::cbNeverDelete
;	COMDAT ?_pAtlAutoThreadModule@ATL@@3PAUIAtlAutoThreadModule@1@A
_BSS	SEGMENT
?_pAtlAutoThreadModule@ATL@@3PAUIAtlAutoThreadModule@1@A DD 01H DUP (?) ; ATL::_pAtlAutoThreadModule
_BSS	ENDS
;	COMDAT ?s_pfnPrevHook@CNoUIAssertHook@ATL@@0P6AHHPADPAH@ZA
_BSS	SEGMENT
?s_pfnPrevHook@CNoUIAssertHook@ATL@@0P6AHHPADPAH@ZA DD 01H DUP (?) ; ATL::CNoUIAssertHook::s_pfnPrevHook
_BSS	ENDS
;	COMDAT ?m_bInitFailed@CAtlBaseModule@ATL@@2_NA
_BSS	SEGMENT
?m_bInitFailed@CAtlBaseModule@ATL@@2_NA DB 01H DUP (?)	; ATL::CAtlBaseModule::m_bInitFailed
_BSS	ENDS
;	COMDAT ?_pPerfRegFunc@ATL@@3P6AJPAUHINSTANCE__@@@ZA
_BSS	SEGMENT
?_pPerfRegFunc@ATL@@3P6AJPAUHINSTANCE__@@@ZA DD 01H DUP (?) ; ATL::_pPerfRegFunc
_BSS	ENDS
;	COMDAT ?_pPerfUnRegFunc@ATL@@3P6AJXZA
_BSS	SEGMENT
?_pPerfUnRegFunc@ATL@@3P6AJXZA DD 01H DUP (?)		; ATL::_pPerfUnRegFunc
_BSS	ENDS
;	COMDAT ?_AtlRegisterPerUser@ATL@@3_NA
_BSS	SEGMENT
?_AtlRegisterPerUser@ATL@@3_NA DB 01H DUP (?)		; ATL::_AtlRegisterPerUser
_BSS	ENDS
;	COMDAT ?_pAtlModule@ATL@@3PAVCAtlModule@1@A
_BSS	SEGMENT
?_pAtlModule@ATL@@3PAVCAtlModule@1@A DD 01H DUP (?)	; ATL::_pAtlModule
_BSS	ENDS
;	COMDAT ?m_libid@CAtlModule@ATL@@2U_GUID@@A
_BSS	SEGMENT
?m_libid@CAtlModule@ATL@@2U_GUID@@A DB 010H DUP (?)	; ATL::CAtlModule::m_libid
_BSS	ENDS
;	COMDAT ?_pModule@ATL@@3PAVCComModule@1@A
_BSS	SEGMENT
?_pModule@ATL@@3PAVCComModule@1@A DD 01H DUP (?)	; ATL::_pModule
_BSS	ENDS
;	COMDAT ?ATL_CREATE_OBJECT@CComApartment@ATL@@2IA
_BSS	SEGMENT
?ATL_CREATE_OBJECT@CComApartment@ATL@@2IA DD 01H DUP (?) ; ATL::CComApartment::ATL_CREATE_OBJECT
_BSS	ENDS
;	COMDAT ?cbNeverDelete@CRegParser@ATL@@1HB
CONST	SEGMENT
?cbNeverDelete@CRegParser@ATL@@1HB DD 0cH		; ATL::CRegParser::cbNeverDelete
CONST	ENDS
;	COMDAT ?rgszNeverDelete@CRegParser@ATL@@1QBQBDB
CONST	SEGMENT
?rgszNeverDelete@CRegParser@ATL@@1QBQBDB DD FLAT:??_C@_05PDIKPLII@AppID?$AA@ ; ATL::CRegParser::rgszNeverDelete
	DD	FLAT:??_C@_05GIBEAPNE@CLSID?$AA@
	DD	FLAT:??_C@_0BF@HDDNNDFH@Component?5Categories?$AA@
	DD	FLAT:??_C@_08PICKODJL@FileType?$AA@
	DD	FLAT:??_C@_09JKPGEJCH@Interface?$AA@
	DD	FLAT:??_C@_08PPIOJEA@Hardware?$AA@
	DD	FLAT:??_C@_04IHBFOLAC@Mime?$AA@
	DD	FLAT:??_C@_03DDIMFGBA@SAM?$AA@
	DD	FLAT:??_C@_08LOPHEHKG@SECURITY?$AA@
	DD	FLAT:??_C@_06FDHFNJBJ@SYSTEM?$AA@
	DD	FLAT:??_C@_08KEKAJNJI@Software?$AA@
	DD	FLAT:??_C@_07KJLOKDKB@TypeLib?$AA@
CONST	ENDS
;	COMDAT ??_C@_07KJLOKDKB@TypeLib?$AA@
CONST	SEGMENT
??_C@_07KJLOKDKB@TypeLib?$AA@ DB 'TypeLib', 00H		; `string'
CONST	ENDS
;	COMDAT ??_C@_08KEKAJNJI@Software?$AA@
CONST	SEGMENT
??_C@_08KEKAJNJI@Software?$AA@ DB 'Software', 00H	; `string'
CONST	ENDS
;	COMDAT ??_C@_06FDHFNJBJ@SYSTEM?$AA@
CONST	SEGMENT
??_C@_06FDHFNJBJ@SYSTEM?$AA@ DB 'SYSTEM', 00H		; `string'
CONST	ENDS
;	COMDAT ??_C@_08LOPHEHKG@SECURITY?$AA@
CONST	SEGMENT
??_C@_08LOPHEHKG@SECURITY?$AA@ DB 'SECURITY', 00H	; `string'
CONST	ENDS
;	COMDAT ??_C@_03DDIMFGBA@SAM?$AA@
CONST	SEGMENT
??_C@_03DDIMFGBA@SAM?$AA@ DB 'SAM', 00H			; `string'
CONST	ENDS
;	COMDAT ??_C@_04IHBFOLAC@Mime?$AA@
CONST	SEGMENT
??_C@_04IHBFOLAC@Mime?$AA@ DB 'Mime', 00H		; `string'
CONST	ENDS
;	COMDAT ??_C@_08PPIOJEA@Hardware?$AA@
CONST	SEGMENT
??_C@_08PPIOJEA@Hardware?$AA@ DB 'Hardware', 00H	; `string'
CONST	ENDS
;	COMDAT ??_C@_09JKPGEJCH@Interface?$AA@
CONST	SEGMENT
??_C@_09JKPGEJCH@Interface?$AA@ DB 'Interface', 00H	; `string'
CONST	ENDS
;	COMDAT ??_C@_08PICKODJL@FileType?$AA@
CONST	SEGMENT
??_C@_08PICKODJL@FileType?$AA@ DB 'FileType', 00H	; `string'
CONST	ENDS
;	COMDAT ??_C@_0BF@HDDNNDFH@Component?5Categories?$AA@
CONST	SEGMENT
??_C@_0BF@HDDNNDFH@Component?5Categories?$AA@ DB 'Component Categories', 00H ; `string'
CONST	ENDS
;	COMDAT ??_C@_05GIBEAPNE@CLSID?$AA@
CONST	SEGMENT
??_C@_05GIBEAPNE@CLSID?$AA@ DB 'CLSID', 00H		; `string'
CONST	ENDS
;	COMDAT ??_C@_05PDIKPLII@AppID?$AA@
CONST	SEGMENT
??_C@_05PDIKPLII@AppID?$AA@ DB 'AppID', 00H		; `string'
CONST	ENDS
;	COMDAT ?MAX_TYPE@CRegParser@ATL@@1HB
CONST	SEGMENT
?MAX_TYPE@CRegParser@ATL@@1HB DD 01000H			; ATL::CRegParser::MAX_TYPE
CONST	ENDS
;	COMDAT ?MAX_VALUE@CRegParser@ATL@@1HB
CONST	SEGMENT
?MAX_VALUE@CRegParser@ATL@@1HB DD 01000H		; ATL::CRegParser::MAX_VALUE
CONST	ENDS
;	COMDAT ??_C@_06JBKGCNBB@Delete?$AA@
CONST	SEGMENT
??_C@_06JBKGCNBB@Delete?$AA@ DB 'Delete', 00H		; `string'
CONST	ENDS
;	COMDAT ??_C@_08KAAPDIAN@NoRemove?$AA@
CONST	SEGMENT
??_C@_08KAAPDIAN@NoRemove?$AA@ DB 'NoRemove', 00H	; `string'
CONST	ENDS
;	COMDAT ??_C@_0M@DBGDLGLL@ForceRemove?$AA@
CONST	SEGMENT
??_C@_0M@DBGDLGLL@ForceRemove?$AA@ DB 'ForceRemove', 00H ; `string'
CONST	ENDS
;	COMDAT ??_C@_03LAIAPFCB@Val?$AA@
CONST	SEGMENT
??_C@_03LAIAPFCB@Val?$AA@ DB 'Val', 00H			; `string'
CONST	ENDS
;	COMDAT ??_C@_01HMGJMAIH@B?$AA@
CONST	SEGMENT
??_C@_01HMGJMAIH@B?$AA@ DB 'B', 00H			; `string'
CONST	ENDS
;	COMDAT ??_C@_01CKDDGHAB@D?$AA@
CONST	SEGMENT
??_C@_01CKDDGHAB@D?$AA@ DB 'D', 00H			; `string'
CONST	ENDS
;	COMDAT ??_C@_01PLPBNMEI@M?$AA@
CONST	SEGMENT
??_C@_01PLPBNMEI@M?$AA@ DB 'M', 00H			; `string'
CONST	ENDS
CONST	SEGMENT
_szStringVal DD	FLAT:??_C@_01CPLAODJH@S?$AA@
_multiszStringVal DD FLAT:??_C@_01PLPBNMEI@M?$AA@
_szDwordVal DD	FLAT:??_C@_01CKDDGHAB@D?$AA@
_szBinaryVal DD	FLAT:??_C@_01HMGJMAIH@B?$AA@
_szValToken DD	FLAT:??_C@_03LAIAPFCB@Val?$AA@
_szForceRemove DD FLAT:??_C@_0M@DBGDLGLL@ForceRemove?$AA@
_szNoRemove DD	FLAT:??_C@_08KAAPDIAN@NoRemove?$AA@
_szDelete DD	FLAT:??_C@_06JBKGCNBB@Delete?$AA@
CONST	ENDS
;	COMDAT ??_C@_01CPLAODJH@S?$AA@
CONST	SEGMENT
??_C@_01CPLAODJH@S?$AA@ DB 'S', 00H			; `string'
CONST	ENDS
;	COMDAT ___pobjMapEntryLast
ATL$__z	SEGMENT
___pobjMapEntryLast DD 00H
ATL$__z	ENDS
;	COMDAT ___pobjMapEntryFirst
ATL$__a	SEGMENT
___pobjMapEntryFirst DD 00H
ATL$__a	ENDS
;	COMDAT _IID_IAxWinAmbientDispatchEx
CONST	SEGMENT
_IID_IAxWinAmbientDispatchEx DD 0b2d0778bH
	DW	0ac99H
	DW	04c58H
	DB	0a5H
	DB	0c8H
	DB	0e7H
	DB	072H
	DB	04eH
	DB	053H
	DB	016H
	DB	0b5H
CONST	ENDS
;	COMDAT _IID_IAxWinHostWindowLic
CONST	SEGMENT
_IID_IAxWinHostWindowLic DD 03935bda8H
	DW	04ed9H
	DW	0495cH
	DB	086H
	DB	050H
	DB	0e0H
	DB	01fH
	DB	0c1H
	DB	0e3H
	DB	08aH
	DB	04bH
CONST	ENDS
;	COMDAT _IID_IDocHostUIHandlerDispatch
CONST	SEGMENT
_IID_IDocHostUIHandlerDispatch DD 0425b5af0H
	DW	065f1H
	DW	011d1H
	DB	096H
	DB	011H
	DB	00H
	DB	00H
	DB	0f8H
	DB	01eH
	DB	0dH
	DB	0dH
CONST	ENDS
;	COMDAT _IID_IInternalConnection
CONST	SEGMENT
_IID_IInternalConnection DD 072ad0770H
	DW	06a9fH
	DW	011d1H
	DB	0bcH
	DB	0ecH
	DB	00H
	DB	060H
	DB	08H
	DB	08fH
	DB	044H
	DB	04eH
CONST	ENDS
;	COMDAT _IID_IAxWinAmbientDispatch
CONST	SEGMENT
_IID_IAxWinAmbientDispatch DD 0b6ea2051H
	DW	048aH
	DW	011d1H
	DB	082H
	DB	0b9H
	DB	00H
	DB	0c0H
	DB	04fH
	DB	0b9H
	DB	094H
	DB	02eH
CONST	ENDS
;	COMDAT _IID_IAxWinHostWindow
CONST	SEGMENT
_IID_IAxWinHostWindow DD 0b6ea2050H
	DW	048aH
	DW	011d1H
	DB	082H
	DB	0b9H
	DB	00H
	DB	0c0H
	DB	04fH
	DB	0b9H
	DB	094H
	DB	02eH
CONST	ENDS
;	COMDAT _IID_IRegistrar
CONST	SEGMENT
_IID_IRegistrar DD 044ec053bH
	DW	0400fH
	DW	011d0H
	DB	09dH
	DB	0cdH
	DB	00H
	DB	0a0H
	DB	0c9H
	DB	03H
	DB	091H
	DB	0d3H
CONST	ENDS
;	COMDAT _CLSID_Registrar
CONST	SEGMENT
_CLSID_Registrar DD 044ec053aH
	DW	0400fH
	DW	011d0H
	DB	09dH
	DB	0cdH
	DB	00H
	DB	0a0H
	DB	0c9H
	DB	03H
	DB	091H
	DB	0d3H
CONST	ENDS
;	COMDAT _LIBID_ATLLib
CONST	SEGMENT
_LIBID_ATLLib DD 044ec0535H
	DW	0400fH
	DW	011d0H
	DB	09dH
	DB	0cdH
	DB	00H
	DB	0a0H
	DB	0c9H
	DB	03H
	DB	091H
	DB	0d3H
CONST	ENDS
;	COMDAT ?pmField@?$CVarTypeInfo@PATtagCY@@@ATL@@2QQtagVARIANT@@PATtagCY@@Q3@
CONST	SEGMENT
?pmField@?$CVarTypeInfo@PATtagCY@@@ATL@@2QQtagVARIANT@@PATtagCY@@Q3@ DD 08H ; ATL::CVarTypeInfo<tagCY *>::pmField
CONST	ENDS
;	COMDAT ?VT@?$CVarTypeInfo@PATtagCY@@@ATL@@2GB
CONST	SEGMENT
?VT@?$CVarTypeInfo@PATtagCY@@@ATL@@2GB DW 04006H	; ATL::CVarTypeInfo<tagCY *>::VT
CONST	ENDS
;	COMDAT ?pmField@?$CVarTypeInfo@TtagCY@@@ATL@@2QQtagVARIANT@@TtagCY@@Q3@
CONST	SEGMENT
?pmField@?$CVarTypeInfo@TtagCY@@@ATL@@2QQtagVARIANT@@TtagCY@@Q3@ DD 08H ; ATL::CVarTypeInfo<tagCY>::pmField
CONST	ENDS
;	COMDAT ?VT@?$CVarTypeInfo@TtagCY@@@ATL@@2GB
CONST	SEGMENT
?VT@?$CVarTypeInfo@TtagCY@@@ATL@@2GB DW 06H		; ATL::CVarTypeInfo<tagCY>::VT
CONST	ENDS
;	COMDAT ?pmField@?$CVarTypeInfo@PAPAUIDispatch@@@ATL@@2QQtagVARIANT@@PAPAUIDispatch@@Q3@
CONST	SEGMENT
?pmField@?$CVarTypeInfo@PAPAUIDispatch@@@ATL@@2QQtagVARIANT@@PAPAUIDispatch@@Q3@ DD 08H ; ATL::CVarTypeInfo<IDispatch * *>::pmField
CONST	ENDS
;	COMDAT ?VT@?$CVarTypeInfo@PAPAUIDispatch@@@ATL@@2GB
CONST	SEGMENT
?VT@?$CVarTypeInfo@PAPAUIDispatch@@@ATL@@2GB DW 04009H	; ATL::CVarTypeInfo<IDispatch * *>::VT
CONST	ENDS
;	COMDAT ?pmField@?$CVarTypeInfo@PAUIDispatch@@@ATL@@2QQtagVARIANT@@PAUIDispatch@@Q3@
CONST	SEGMENT
?pmField@?$CVarTypeInfo@PAUIDispatch@@@ATL@@2QQtagVARIANT@@PAUIDispatch@@Q3@ DD 08H ; ATL::CVarTypeInfo<IDispatch *>::pmField
CONST	ENDS
;	COMDAT ?VT@?$CVarTypeInfo@PAUIDispatch@@@ATL@@2GB
CONST	SEGMENT
?VT@?$CVarTypeInfo@PAUIDispatch@@@ATL@@2GB DW 09H	; ATL::CVarTypeInfo<IDispatch *>::VT
CONST	ENDS
;	COMDAT ?pmField@?$CVarTypeInfo@PAPAUIUnknown@@@ATL@@2QQtagVARIANT@@PAPAUIUnknown@@Q3@
CONST	SEGMENT
?pmField@?$CVarTypeInfo@PAPAUIUnknown@@@ATL@@2QQtagVARIANT@@PAPAUIUnknown@@Q3@ DD 08H ; ATL::CVarTypeInfo<IUnknown * *>::pmField
CONST	ENDS
;	COMDAT ?VT@?$CVarTypeInfo@PAPAUIUnknown@@@ATL@@2GB
CONST	SEGMENT
?VT@?$CVarTypeInfo@PAPAUIUnknown@@@ATL@@2GB DW 0400dH	; ATL::CVarTypeInfo<IUnknown * *>::VT
CONST	ENDS
;	COMDAT ?pmField@?$CVarTypeInfo@PAUIUnknown@@@ATL@@2QQtagVARIANT@@PAUIUnknown@@Q3@
CONST	SEGMENT
?pmField@?$CVarTypeInfo@PAUIUnknown@@@ATL@@2QQtagVARIANT@@PAUIUnknown@@Q3@ DD 08H ; ATL::CVarTypeInfo<IUnknown *>::pmField
CONST	ENDS
;	COMDAT ?VT@?$CVarTypeInfo@PAUIUnknown@@@ATL@@2GB
CONST	SEGMENT
?VT@?$CVarTypeInfo@PAUIUnknown@@@ATL@@2GB DW 0dH	; ATL::CVarTypeInfo<IUnknown *>::VT
CONST	ENDS
;	COMDAT ?pmField@?$CVarTypeInfo@PAPA_W@ATL@@2QQtagVARIANT@@PAPA_WQ3@
CONST	SEGMENT
?pmField@?$CVarTypeInfo@PAPA_W@ATL@@2QQtagVARIANT@@PAPA_WQ3@ DD 08H ; ATL::CVarTypeInfo<wchar_t * *>::pmField
CONST	ENDS
;	COMDAT ?VT@?$CVarTypeInfo@PAPA_W@ATL@@2GB
CONST	SEGMENT
?VT@?$CVarTypeInfo@PAPA_W@ATL@@2GB DW 04008H		; ATL::CVarTypeInfo<wchar_t * *>::VT
CONST	ENDS
;	COMDAT ?pmField@?$CVarTypeInfo@PA_W@ATL@@2QQtagVARIANT@@PA_WQ3@
CONST	SEGMENT
?pmField@?$CVarTypeInfo@PA_W@ATL@@2QQtagVARIANT@@PA_WQ3@ DD 08H ; ATL::CVarTypeInfo<wchar_t *>::pmField
CONST	ENDS
;	COMDAT ?VT@?$CVarTypeInfo@PA_W@ATL@@2GB
CONST	SEGMENT
?VT@?$CVarTypeInfo@PA_W@ATL@@2GB DW 08H			; ATL::CVarTypeInfo<wchar_t *>::VT
CONST	ENDS
;	COMDAT ?VT@?$CVarTypeInfo@PAUtagVARIANT@@@ATL@@2GB
CONST	SEGMENT
?VT@?$CVarTypeInfo@PAUtagVARIANT@@@ATL@@2GB DW 0400cH	; ATL::CVarTypeInfo<tagVARIANT *>::VT
CONST	ENDS
;	COMDAT ?pmField@?$CVarTypeInfo@PAN@ATL@@2QQtagVARIANT@@PANQ3@
CONST	SEGMENT
?pmField@?$CVarTypeInfo@PAN@ATL@@2QQtagVARIANT@@PANQ3@ DD 08H ; ATL::CVarTypeInfo<double *>::pmField
CONST	ENDS
;	COMDAT ?VT@?$CVarTypeInfo@PAN@ATL@@2GB
CONST	SEGMENT
?VT@?$CVarTypeInfo@PAN@ATL@@2GB DW 04005H		; ATL::CVarTypeInfo<double *>::VT
CONST	ENDS
;	COMDAT ?pmField@?$CVarTypeInfo@N@ATL@@2QQtagVARIANT@@NQ3@
CONST	SEGMENT
?pmField@?$CVarTypeInfo@N@ATL@@2QQtagVARIANT@@NQ3@ DD 08H ; ATL::CVarTypeInfo<double>::pmField
CONST	ENDS
;	COMDAT ?VT@?$CVarTypeInfo@N@ATL@@2GB
CONST	SEGMENT
?VT@?$CVarTypeInfo@N@ATL@@2GB DW 05H			; ATL::CVarTypeInfo<double>::VT
CONST	ENDS
;	COMDAT ?pmField@?$CVarTypeInfo@PAM@ATL@@2QQtagVARIANT@@PAMQ3@
CONST	SEGMENT
?pmField@?$CVarTypeInfo@PAM@ATL@@2QQtagVARIANT@@PAMQ3@ DD 08H ; ATL::CVarTypeInfo<float *>::pmField
CONST	ENDS
;	COMDAT ?VT@?$CVarTypeInfo@PAM@ATL@@2GB
CONST	SEGMENT
?VT@?$CVarTypeInfo@PAM@ATL@@2GB DW 04004H		; ATL::CVarTypeInfo<float *>::VT
CONST	ENDS
;	COMDAT ?pmField@?$CVarTypeInfo@M@ATL@@2QQtagVARIANT@@MQ3@
CONST	SEGMENT
?pmField@?$CVarTypeInfo@M@ATL@@2QQtagVARIANT@@MQ3@ DD 08H ; ATL::CVarTypeInfo<float>::pmField
CONST	ENDS
;	COMDAT ?VT@?$CVarTypeInfo@M@ATL@@2GB
CONST	SEGMENT
?VT@?$CVarTypeInfo@M@ATL@@2GB DW 04H			; ATL::CVarTypeInfo<float>::VT
CONST	ENDS
;	COMDAT ?pmField@?$CVarTypeInfo@PA_K@ATL@@2QQtagVARIANT@@PA_KQ3@
CONST	SEGMENT
?pmField@?$CVarTypeInfo@PA_K@ATL@@2QQtagVARIANT@@PA_KQ3@ DD 08H ; ATL::CVarTypeInfo<unsigned __int64 *>::pmField
CONST	ENDS
;	COMDAT ?VT@?$CVarTypeInfo@PA_K@ATL@@2GB
CONST	SEGMENT
?VT@?$CVarTypeInfo@PA_K@ATL@@2GB DW 04015H		; ATL::CVarTypeInfo<unsigned __int64 *>::VT
CONST	ENDS
;	COMDAT ?pmField@?$CVarTypeInfo@_K@ATL@@2QQtagVARIANT@@_KQ3@
CONST	SEGMENT
?pmField@?$CVarTypeInfo@_K@ATL@@2QQtagVARIANT@@_KQ3@ DD 08H ; ATL::CVarTypeInfo<unsigned __int64>::pmField
CONST	ENDS
;	COMDAT ?VT@?$CVarTypeInfo@_K@ATL@@2GB
CONST	SEGMENT
?VT@?$CVarTypeInfo@_K@ATL@@2GB DW 015H			; ATL::CVarTypeInfo<unsigned __int64>::VT
CONST	ENDS
;	COMDAT ?pmField@?$CVarTypeInfo@PA_J@ATL@@2QQtagVARIANT@@PA_JQ3@
CONST	SEGMENT
?pmField@?$CVarTypeInfo@PA_J@ATL@@2QQtagVARIANT@@PA_JQ3@ DD 08H ; ATL::CVarTypeInfo<__int64 *>::pmField
CONST	ENDS
;	COMDAT ?VT@?$CVarTypeInfo@PA_J@ATL@@2GB
CONST	SEGMENT
?VT@?$CVarTypeInfo@PA_J@ATL@@2GB DW 04014H		; ATL::CVarTypeInfo<__int64 *>::VT
CONST	ENDS
;	COMDAT ?pmField@?$CVarTypeInfo@_J@ATL@@2QQtagVARIANT@@_JQ3@
CONST	SEGMENT
?pmField@?$CVarTypeInfo@_J@ATL@@2QQtagVARIANT@@_JQ3@ DD 08H ; ATL::CVarTypeInfo<__int64>::pmField
CONST	ENDS
;	COMDAT ?VT@?$CVarTypeInfo@_J@ATL@@2GB
CONST	SEGMENT
?VT@?$CVarTypeInfo@_J@ATL@@2GB DW 014H			; ATL::CVarTypeInfo<__int64>::VT
CONST	ENDS
;	COMDAT ?pmField@?$CVarTypeInfo@PAK@ATL@@2QQtagVARIANT@@PAKQ3@
CONST	SEGMENT
?pmField@?$CVarTypeInfo@PAK@ATL@@2QQtagVARIANT@@PAKQ3@ DD 08H ; ATL::CVarTypeInfo<unsigned long *>::pmField
CONST	ENDS
;	COMDAT ?VT@?$CVarTypeInfo@PAK@ATL@@2GB
CONST	SEGMENT
?VT@?$CVarTypeInfo@PAK@ATL@@2GB DW 04013H		; ATL::CVarTypeInfo<unsigned long *>::VT
CONST	ENDS
;	COMDAT ?pmField@?$CVarTypeInfo@K@ATL@@2QQtagVARIANT@@KQ3@
CONST	SEGMENT
?pmField@?$CVarTypeInfo@K@ATL@@2QQtagVARIANT@@KQ3@ DD 08H ; ATL::CVarTypeInfo<unsigned long>::pmField
CONST	ENDS
;	COMDAT ?VT@?$CVarTypeInfo@K@ATL@@2GB
CONST	SEGMENT
?VT@?$CVarTypeInfo@K@ATL@@2GB DW 013H			; ATL::CVarTypeInfo<unsigned long>::VT
CONST	ENDS
;	COMDAT ?pmField@?$CVarTypeInfo@PAJ@ATL@@2QQtagVARIANT@@PAJQ3@
CONST	SEGMENT
?pmField@?$CVarTypeInfo@PAJ@ATL@@2QQtagVARIANT@@PAJQ3@ DD 08H ; ATL::CVarTypeInfo<long *>::pmField
CONST	ENDS
;	COMDAT ?VT@?$CVarTypeInfo@PAJ@ATL@@2GB
CONST	SEGMENT
?VT@?$CVarTypeInfo@PAJ@ATL@@2GB DW 04003H		; ATL::CVarTypeInfo<long *>::VT
CONST	ENDS
;	COMDAT ?pmField@?$CVarTypeInfo@J@ATL@@2QQtagVARIANT@@JQ3@
CONST	SEGMENT
?pmField@?$CVarTypeInfo@J@ATL@@2QQtagVARIANT@@JQ3@ DD 08H ; ATL::CVarTypeInfo<long>::pmField
CONST	ENDS
;	COMDAT ?VT@?$CVarTypeInfo@J@ATL@@2GB
CONST	SEGMENT
?VT@?$CVarTypeInfo@J@ATL@@2GB DW 03H			; ATL::CVarTypeInfo<long>::VT
CONST	ENDS
;	COMDAT ?pmField@?$CVarTypeInfo@PAI@ATL@@2QQtagVARIANT@@PAIQ3@
CONST	SEGMENT
?pmField@?$CVarTypeInfo@PAI@ATL@@2QQtagVARIANT@@PAIQ3@ DD 08H ; ATL::CVarTypeInfo<unsigned int *>::pmField
CONST	ENDS
;	COMDAT ?VT@?$CVarTypeInfo@PAI@ATL@@2GB
CONST	SEGMENT
?VT@?$CVarTypeInfo@PAI@ATL@@2GB DW 04013H		; ATL::CVarTypeInfo<unsigned int *>::VT
CONST	ENDS
;	COMDAT ?pmField@?$CVarTypeInfo@I@ATL@@2QQtagVARIANT@@IQ3@
CONST	SEGMENT
?pmField@?$CVarTypeInfo@I@ATL@@2QQtagVARIANT@@IQ3@ DD 08H ; ATL::CVarTypeInfo<unsigned int>::pmField
CONST	ENDS
;	COMDAT ?VT@?$CVarTypeInfo@I@ATL@@2GB
CONST	SEGMENT
?VT@?$CVarTypeInfo@I@ATL@@2GB DW 013H			; ATL::CVarTypeInfo<unsigned int>::VT
CONST	ENDS
;	COMDAT ?pmField@?$CVarTypeInfo@PAH@ATL@@2QQtagVARIANT@@PAHQ3@
CONST	SEGMENT
?pmField@?$CVarTypeInfo@PAH@ATL@@2QQtagVARIANT@@PAHQ3@ DD 08H ; ATL::CVarTypeInfo<int *>::pmField
CONST	ENDS
;	COMDAT ?VT@?$CVarTypeInfo@PAH@ATL@@2GB
CONST	SEGMENT
?VT@?$CVarTypeInfo@PAH@ATL@@2GB DW 04003H		; ATL::CVarTypeInfo<int *>::VT
CONST	ENDS
;	COMDAT ?pmField@?$CVarTypeInfo@H@ATL@@2QQtagVARIANT@@HQ3@
CONST	SEGMENT
?pmField@?$CVarTypeInfo@H@ATL@@2QQtagVARIANT@@HQ3@ DD 08H ; ATL::CVarTypeInfo<int>::pmField
CONST	ENDS
;	COMDAT ?VT@?$CVarTypeInfo@H@ATL@@2GB
CONST	SEGMENT
?VT@?$CVarTypeInfo@H@ATL@@2GB DW 03H			; ATL::CVarTypeInfo<int>::VT
CONST	ENDS
;	COMDAT ?pmField@?$CVarTypeInfo@PAG@ATL@@2QQtagVARIANT@@PAGQ3@
CONST	SEGMENT
?pmField@?$CVarTypeInfo@PAG@ATL@@2QQtagVARIANT@@PAGQ3@ DD 08H ; ATL::CVarTypeInfo<unsigned short *>::pmField
CONST	ENDS
;	COMDAT ?VT@?$CVarTypeInfo@PAG@ATL@@2GB
CONST	SEGMENT
?VT@?$CVarTypeInfo@PAG@ATL@@2GB DW 04012H		; ATL::CVarTypeInfo<unsigned short *>::VT
CONST	ENDS
;	COMDAT ?pmField@?$CVarTypeInfo@G@ATL@@2QQtagVARIANT@@GQ3@
CONST	SEGMENT
?pmField@?$CVarTypeInfo@G@ATL@@2QQtagVARIANT@@GQ3@ DD 08H ; ATL::CVarTypeInfo<unsigned short>::pmField
CONST	ENDS
;	COMDAT ?VT@?$CVarTypeInfo@G@ATL@@2GB
CONST	SEGMENT
?VT@?$CVarTypeInfo@G@ATL@@2GB DW 012H			; ATL::CVarTypeInfo<unsigned short>::VT
CONST	ENDS
;	COMDAT ?pmField@?$CVarTypeInfo@PAF@ATL@@2QQtagVARIANT@@PAFQ3@
CONST	SEGMENT
?pmField@?$CVarTypeInfo@PAF@ATL@@2QQtagVARIANT@@PAFQ3@ DD 08H ; ATL::CVarTypeInfo<short *>::pmField
CONST	ENDS
;	COMDAT ?VT@?$CVarTypeInfo@PAF@ATL@@2GB
CONST	SEGMENT
?VT@?$CVarTypeInfo@PAF@ATL@@2GB DW 04002H		; ATL::CVarTypeInfo<short *>::VT
CONST	ENDS
;	COMDAT ?pmField@?$CVarTypeInfo@F@ATL@@2QQtagVARIANT@@FQ3@
CONST	SEGMENT
?pmField@?$CVarTypeInfo@F@ATL@@2QQtagVARIANT@@FQ3@ DD 08H ; ATL::CVarTypeInfo<short>::pmField
CONST	ENDS
;	COMDAT ?VT@?$CVarTypeInfo@F@ATL@@2GB
CONST	SEGMENT
?VT@?$CVarTypeInfo@F@ATL@@2GB DW 02H			; ATL::CVarTypeInfo<short>::VT
CONST	ENDS
;	COMDAT ?pmField@?$CVarTypeInfo@PAE@ATL@@2QQtagVARIANT@@PAEQ3@
CONST	SEGMENT
?pmField@?$CVarTypeInfo@PAE@ATL@@2QQtagVARIANT@@PAEQ3@ DD 08H ; ATL::CVarTypeInfo<unsigned char *>::pmField
CONST	ENDS
;	COMDAT ?VT@?$CVarTypeInfo@PAE@ATL@@2GB
CONST	SEGMENT
?VT@?$CVarTypeInfo@PAE@ATL@@2GB DW 04011H		; ATL::CVarTypeInfo<unsigned char *>::VT
CONST	ENDS
;	COMDAT ?pmField@?$CVarTypeInfo@PAD@ATL@@2QQtagVARIANT@@PADQ3@
CONST	SEGMENT
?pmField@?$CVarTypeInfo@PAD@ATL@@2QQtagVARIANT@@PADQ3@ DD 08H ; ATL::CVarTypeInfo<char *>::pmField
CONST	ENDS
;	COMDAT ?VT@?$CVarTypeInfo@PAD@ATL@@2GB
CONST	SEGMENT
?VT@?$CVarTypeInfo@PAD@ATL@@2GB DW 04010H		; ATL::CVarTypeInfo<char *>::VT
CONST	ENDS
;	COMDAT ?pmField@?$CVarTypeInfo@E@ATL@@2QQtagVARIANT@@EQ3@
CONST	SEGMENT
?pmField@?$CVarTypeInfo@E@ATL@@2QQtagVARIANT@@EQ3@ DD 08H ; ATL::CVarTypeInfo<unsigned char>::pmField
CONST	ENDS
;	COMDAT ?VT@?$CVarTypeInfo@E@ATL@@2GB
CONST	SEGMENT
?VT@?$CVarTypeInfo@E@ATL@@2GB DW 011H			; ATL::CVarTypeInfo<unsigned char>::VT
CONST	ENDS
;	COMDAT ?pmField@?$CVarTypeInfo@D@ATL@@2QQtagVARIANT@@DQ3@
CONST	SEGMENT
?pmField@?$CVarTypeInfo@D@ATL@@2QQtagVARIANT@@DQ3@ DD 08H ; ATL::CVarTypeInfo<char>::pmField
CONST	ENDS
;	COMDAT ?VT@?$CVarTypeInfo@D@ATL@@2GB
CONST	SEGMENT
?VT@?$CVarTypeInfo@D@ATL@@2GB DW 010H			; ATL::CVarTypeInfo<char>::VT
CONST	ENDS
;	COMDAT ?_Max@?$AtlLimits@_K@ATL@@2_KB
CONST	SEGMENT
?_Max@?$AtlLimits@_K@ATL@@2_KB DQ ffffffffffffffffH	; ATL::AtlLimits<unsigned __int64>::_Max
CONST	ENDS
;	COMDAT ?_Min@?$AtlLimits@_K@ATL@@2_KB
CONST	SEGMENT
?_Min@?$AtlLimits@_K@ATL@@2_KB DQ 0000000000000000H	; ATL::AtlLimits<unsigned __int64>::_Min
CONST	ENDS
;	COMDAT ?_Max@?$AtlLimits@_J@ATL@@2_JB
CONST	SEGMENT
?_Max@?$AtlLimits@_J@ATL@@2_JB DQ 7fffffffffffffffH	; ATL::AtlLimits<__int64>::_Max
CONST	ENDS
;	COMDAT ?_Min@?$AtlLimits@_J@ATL@@2_JB
CONST	SEGMENT
?_Min@?$AtlLimits@_J@ATL@@2_JB DQ 8000000000000000H	; ATL::AtlLimits<__int64>::_Min
CONST	ENDS
;	COMDAT ?_Max@?$AtlLimits@K@ATL@@2KB
CONST	SEGMENT
?_Max@?$AtlLimits@K@ATL@@2KB DD 0ffffffffH		; ATL::AtlLimits<unsigned long>::_Max
CONST	ENDS
;	COMDAT ?_Min@?$AtlLimits@K@ATL@@2KB
CONST	SEGMENT
?_Min@?$AtlLimits@K@ATL@@2KB DD 00H			; ATL::AtlLimits<unsigned long>::_Min
CONST	ENDS
;	COMDAT ?_Max@?$AtlLimits@J@ATL@@2JB
CONST	SEGMENT
?_Max@?$AtlLimits@J@ATL@@2JB DD 07fffffffH		; ATL::AtlLimits<long>::_Max
CONST	ENDS
;	COMDAT ?_Min@?$AtlLimits@J@ATL@@2JB
CONST	SEGMENT
?_Min@?$AtlLimits@J@ATL@@2JB DD 080000000H		; ATL::AtlLimits<long>::_Min
CONST	ENDS
;	COMDAT ?_Max@?$AtlLimits@I@ATL@@2IB
CONST	SEGMENT
?_Max@?$AtlLimits@I@ATL@@2IB DD 0ffffffffH		; ATL::AtlLimits<unsigned int>::_Max
CONST	ENDS
;	COMDAT ?_Min@?$AtlLimits@I@ATL@@2IB
CONST	SEGMENT
?_Min@?$AtlLimits@I@ATL@@2IB DD 00H			; ATL::AtlLimits<unsigned int>::_Min
CONST	ENDS
;	COMDAT ?_Max@?$AtlLimits@H@ATL@@2HB
CONST	SEGMENT
?_Max@?$AtlLimits@H@ATL@@2HB DD 07fffffffH		; ATL::AtlLimits<int>::_Max
CONST	ENDS
;	COMDAT ?_Min@?$AtlLimits@H@ATL@@2HB
CONST	SEGMENT
?_Min@?$AtlLimits@H@ATL@@2HB DD 080000000H		; ATL::AtlLimits<int>::_Min
CONST	ENDS
PUBLIC	??_C@_05PDJBBECF@pause?$AA@			; `string'
PUBLIC	?ExploreFile@@YAKPAD@Z				; ExploreFile
PUBLIC	??_C@_06MOMOJMIE@E?3?2dus?$AA@			; `string'
PUBLIC	??_C@_0BK@DJFJMPCC@ERROR_NO_NET_OR_BAD_PATH?6?$AA@ ; `string'
PUBLIC	??_C@_0BG@IBMEGKFB@ERROR_EXTENDED_ERROR?6?$AA@	; `string'
PUBLIC	??_C@_0BC@DJOLMCAH@ERROR_NO_NETWORK?6?$AA@	; `string'
PUBLIC	??_C@_0BK@HFPGIGPH@ERROR_CONNECTION_UNAVAIL?6?$AA@ ; `string'
PUBLIC	??_C@_0BB@GCKBKBDH@ERROR_MORE_DATA?6?$AA@	; `string'
PUBLIC	??_C@_0BF@KIKCPGEG@ERROR_NOT_CONNECTED?6?$AA@	; `string'
PUBLIC	??_C@_0BC@KBEGCELM@ERROR_BAD_DEVICE?6?$AA@	; `string'
PUBLIC	??_C@_05IHLPLEMK@else?6?$AA@			; `string'
PUBLIC	??_C@_03COCAMHHC@if?6?$AA@			; `string'
PUBLIC	?strchr@@YAPADPADH@Z				; strchr
PUBLIC	??_C@_0BJ@HCNOMPMB@strlen?$CIaddress?$CJ?5?$DN?5?$CFd?5?$CFs?6?$AA@ ; `string'
PUBLIC	??_C@_09EEGCEPDM@ret?5?$DN?5?$CFd?6?$AA@	; `string'
PUBLIC	??_C@_0P@PPLEABBH@address2?5?$DN?5?$CFs?6?$AA@	; `string'
PUBLIC	??$strcpy_s@$09@@YAHAAY09DPBD@Z			; strcpy_s<10>
PUBLIC	??_C@_02FJNIJKLF@K?3?$AA@			; `string'
PUBLIC	??_C@_08LDMNMOKP@IP?5?$DN?5?$CFs?6?$AA@		; `string'
PUBLIC	??$strcpy_s@$0EA@@@YAHAAY0EA@DPBD@Z		; strcpy_s<64>
PUBLIC	?GetHostIP@@YAPADPAD0@Z				; GetHostIP
PUBLIC	??_C@_0P@JJKNDGHD@192?4168?440?4172?$AA@	; `string'
PUBLIC	??_C@_0N@GIINEEDM@hello?5world?6?$AA@		; `string'
PUBLIC	__$ArrayPad$
PUBLIC	_main
EXTRN	__imp__system:PROC
EXTRN	__imp___access:PROC
EXTRN	_strcmp:PROC
EXTRN	_strlen:PROC
EXTRN	_WNetGetConnectionA@12:PROC
EXTRN	_WSAStartup@8:PROC
EXTRN	__imp__printf:PROC
EXTRN	___security_cookie:DWORD
EXTRN	@__security_check_cookie@4:PROC
EXTRN	@_RTC_CheckStackVars@8:PROC
EXTRN	_memset:PROC
EXTRN	__RTC_CheckEsp:PROC
EXTRN	__RTC_Shutdown:PROC
EXTRN	__RTC_InitBase:PROC
;	COMDAT ??_C@_05PDJBBECF@pause?$AA@
; File e:\dus\branches\my_demo_code\center_storge\smbclient_win\smbclient_win\smbclient_win.cpp
CONST	SEGMENT
??_C@_05PDJBBECF@pause?$AA@ DB 'pause', 00H		; `string'
CONST	ENDS
;	COMDAT ??_C@_06MOMOJMIE@E?3?2dus?$AA@
CONST	SEGMENT
??_C@_06MOMOJMIE@E?3?2dus?$AA@ DB 'E:\dus', 00H		; `string'
CONST	ENDS
;	COMDAT ??_C@_0BK@DJFJMPCC@ERROR_NO_NET_OR_BAD_PATH?6?$AA@
CONST	SEGMENT
??_C@_0BK@DJFJMPCC@ERROR_NO_NET_OR_BAD_PATH?6?$AA@ DB 'ERROR_NO_NET_OR_BA'
	DB	'D_PATH', 0aH, 00H				; `string'
CONST	ENDS
;	COMDAT ??_C@_0BG@IBMEGKFB@ERROR_EXTENDED_ERROR?6?$AA@
CONST	SEGMENT
??_C@_0BG@IBMEGKFB@ERROR_EXTENDED_ERROR?6?$AA@ DB 'ERROR_EXTENDED_ERROR', 0aH
	DB	00H						; `string'
CONST	ENDS
;	COMDAT ??_C@_0BC@DJOLMCAH@ERROR_NO_NETWORK?6?$AA@
CONST	SEGMENT
??_C@_0BC@DJOLMCAH@ERROR_NO_NETWORK?6?$AA@ DB 'ERROR_NO_NETWORK', 0aH, 00H ; `string'
CONST	ENDS
;	COMDAT ??_C@_0BK@HFPGIGPH@ERROR_CONNECTION_UNAVAIL?6?$AA@
CONST	SEGMENT
??_C@_0BK@HFPGIGPH@ERROR_CONNECTION_UNAVAIL?6?$AA@ DB 'ERROR_CONNECTION_U'
	DB	'NAVAIL', 0aH, 00H				; `string'
CONST	ENDS
;	COMDAT ??_C@_0BB@GCKBKBDH@ERROR_MORE_DATA?6?$AA@
CONST	SEGMENT
??_C@_0BB@GCKBKBDH@ERROR_MORE_DATA?6?$AA@ DB 'ERROR_MORE_DATA', 0aH, 00H ; `string'
CONST	ENDS
;	COMDAT ??_C@_0BF@KIKCPGEG@ERROR_NOT_CONNECTED?6?$AA@
CONST	SEGMENT
??_C@_0BF@KIKCPGEG@ERROR_NOT_CONNECTED?6?$AA@ DB 'ERROR_NOT_CONNECTED', 0aH
	DB	00H						; `string'
CONST	ENDS
;	COMDAT ??_C@_0BC@KBEGCELM@ERROR_BAD_DEVICE?6?$AA@
CONST	SEGMENT
??_C@_0BC@KBEGCELM@ERROR_BAD_DEVICE?6?$AA@ DB 'ERROR_BAD_DEVICE', 0aH, 00H ; `string'
CONST	ENDS
;	COMDAT ??_C@_05IHLPLEMK@else?6?$AA@
CONST	SEGMENT
??_C@_05IHLPLEMK@else?6?$AA@ DB 'else', 0aH, 00H	; `string'
CONST	ENDS
;	COMDAT ??_C@_03COCAMHHC@if?6?$AA@
CONST	SEGMENT
??_C@_03COCAMHHC@if?6?$AA@ DB 'if', 0aH, 00H		; `string'
CONST	ENDS
;	COMDAT ??_C@_0BJ@HCNOMPMB@strlen?$CIaddress?$CJ?5?$DN?5?$CFd?5?$CFs?6?$AA@
CONST	SEGMENT
??_C@_0BJ@HCNOMPMB@strlen?$CIaddress?$CJ?5?$DN?5?$CFd?5?$CFs?6?$AA@ DB 's'
	DB	'trlen(address) = %d %s', 0aH, 00H		; `string'
CONST	ENDS
;	COMDAT ??_C@_09EEGCEPDM@ret?5?$DN?5?$CFd?6?$AA@
CONST	SEGMENT
??_C@_09EEGCEPDM@ret?5?$DN?5?$CFd?6?$AA@ DB 'ret = %d', 0aH, 00H ; `string'
CONST	ENDS
;	COMDAT ??_C@_0P@PPLEABBH@address2?5?$DN?5?$CFs?6?$AA@
CONST	SEGMENT
??_C@_0P@PPLEABBH@address2?5?$DN?5?$CFs?6?$AA@ DB 'address2 = %s', 0aH, 00H ; `string'
CONST	ENDS
;	COMDAT ??_C@_02FJNIJKLF@K?3?$AA@
CONST	SEGMENT
??_C@_02FJNIJKLF@K?3?$AA@ DB 'K:', 00H			; `string'
CONST	ENDS
;	COMDAT ??_C@_08LDMNMOKP@IP?5?$DN?5?$CFs?6?$AA@
CONST	SEGMENT
??_C@_08LDMNMOKP@IP?5?$DN?5?$CFs?6?$AA@ DB 'IP = %s', 0aH, 00H ; `string'
CONST	ENDS
;	COMDAT ??_C@_0P@JJKNDGHD@192?4168?440?4172?$AA@
CONST	SEGMENT
??_C@_0P@JJKNDGHD@192?4168?440?4172?$AA@ DB '192.168.40.172', 00H ; `string'
CONST	ENDS
;	COMDAT ??_C@_0N@GIINEEDM@hello?5world?6?$AA@
CONST	SEGMENT
??_C@_0N@GIINEEDM@hello?5world?6?$AA@ DB 'hello world', 0aH, 00H ; `string'
CONST	ENDS
;	COMDAT rtc$TMZ
rtc$TMZ	SEGMENT
__RTC_Shutdown.rtc$TMZ DD FLAT:__RTC_Shutdown
rtc$TMZ	ENDS
;	COMDAT rtc$IMZ
rtc$IMZ	SEGMENT
__RTC_InitBase.rtc$IMZ DD FLAT:__RTC_InitBase
; Function compile flags: /Odtp /RTCsu /ZI
rtc$IMZ	ENDS
;	COMDAT _main
_TEXT	SEGMENT
_ps$103154 = -968					; size = 4
_wVersionRequested$ = -956				; size = 2
_WSAData$ = -944					; size = 400
_WSA_return$ = -536					; size = 4
_ret$ = -524						; size = 4
_IP$ = -512						; size = 64
_len$ = -440						; size = 4
_buf$ = -428						; size = 10
_address3$ = -408					; size = 128
_address2$ = -272					; size = 128
_address$ = -136					; size = 128
__$ArrayPad$ = -4					; size = 4
_main	PROC						; COMDAT
; Line 19
	push	ebp
	mov	ebp, esp
	sub	esp, 1164				; 0000048cH
	push	ebx
	push	esi
	push	edi
	lea	edi, DWORD PTR [ebp-1164]
	mov	ecx, 291				; 00000123H
	mov	eax, -858993460				; ccccccccH
	rep stosd
	mov	eax, DWORD PTR ___security_cookie
	xor	eax, ebp
	mov	DWORD PTR __$ArrayPad$[ebp], eax
; Line 20
	mov	esi, esp
	push	OFFSET ??_C@_0N@GIINEEDM@hello?5world?6?$AA@
	call	DWORD PTR __imp__printf
	add	esp, 4
	cmp	esi, esp
	call	__RTC_CheckEsp
; Line 21
	mov	BYTE PTR _address$[ebp], 0
	push	127					; 0000007fH
	push	0
	lea	eax, DWORD PTR _address$[ebp+1]
	push	eax
	call	_memset
	add	esp, 12					; 0000000cH
	mov	BYTE PTR _address2$[ebp], 0
	push	127					; 0000007fH
	push	0
	lea	eax, DWORD PTR _address2$[ebp+1]
	push	eax
	call	_memset
	add	esp, 12					; 0000000cH
	mov	BYTE PTR _address3$[ebp], 0
	push	127					; 0000007fH
	push	0
	lea	eax, DWORD PTR _address3$[ebp+1]
	push	eax
	call	_memset
	add	esp, 12					; 0000000cH
; Line 29
	mov	eax, 514				; 00000202H
	mov	WORD PTR _wVersionRequested$[ebp], ax
; Line 30
	lea	eax, DWORD PTR _WSAData$[ebp]
	push	eax
	movzx	ecx, WORD PTR _wVersionRequested$[ebp]
	push	ecx
	call	_WSAStartup@8
	mov	DWORD PTR _WSA_return$[ebp], eax
; Line 31
	push	0
	push	OFFSET ??_C@_0P@JJKNDGHD@192?4168?440?4172?$AA@
	call	?GetHostIP@@YAPADPAD0@Z			; GetHostIP
	add	esp, 8
	push	eax
	lea	eax, DWORD PTR _IP$[ebp]
	push	eax
	call	??$strcpy_s@$0EA@@@YAHAAY0EA@DPBD@Z	; strcpy_s<64>
	add	esp, 8
; Line 32
	mov	esi, esp
	lea	eax, DWORD PTR _IP$[ebp]
	push	eax
	push	OFFSET ??_C@_08LDMNMOKP@IP?5?$DN?5?$CFs?6?$AA@
	call	DWORD PTR __imp__printf
	add	esp, 8
	cmp	esi, esp
	call	__RTC_CheckEsp
; Line 33
	push	OFFSET ??_C@_02FJNIJKLF@K?3?$AA@
	lea	eax, DWORD PTR _buf$[ebp]
	push	eax
	call	??$strcpy_s@$09@@YAHAAY09DPBD@Z		; strcpy_s<10>
	add	esp, 8
; Line 34
	mov	DWORD PTR _len$[ebp], 128		; 00000080H
; Line 35
	lea	eax, DWORD PTR _address2$[ebp]
	push	eax
	lea	ecx, DWORD PTR _IP$[ebp]
	push	ecx
	call	?GetHostIP@@YAPADPAD0@Z			; GetHostIP
	add	esp, 8
; Line 36
	mov	esi, esp
	lea	eax, DWORD PTR _address2$[ebp]
	push	eax
	push	OFFSET ??_C@_0P@PPLEABBH@address2?5?$DN?5?$CFs?6?$AA@
	call	DWORD PTR __imp__printf
	add	esp, 8
	cmp	esi, esp
	call	__RTC_CheckEsp
; Line 37
	lea	eax, DWORD PTR _len$[ebp]
	push	eax
	lea	ecx, DWORD PTR _address$[ebp]
	push	ecx
	lea	edx, DWORD PTR _buf$[ebp]
	push	edx
	call	_WNetGetConnectionA@12
	mov	DWORD PTR _ret$[ebp], eax
; Line 38
	cmp	DWORD PTR _ret$[ebp], 0
	jne	$LN20@main
; Line 39
	mov	esi, esp
	mov	eax, DWORD PTR _ret$[ebp]
	push	eax
	push	OFFSET ??_C@_09EEGCEPDM@ret?5?$DN?5?$CFd?6?$AA@
	call	DWORD PTR __imp__printf
	add	esp, 8
	cmp	esi, esp
	call	__RTC_CheckEsp
; Line 41
	mov	esi, esp
	lea	eax, DWORD PTR _address$[ebp]
	push	eax
	lea	ecx, DWORD PTR _address$[ebp]
	push	ecx
	call	_strlen
	add	esp, 4
	push	eax
	push	OFFSET ??_C@_0BJ@HCNOMPMB@strlen?$CIaddress?$CJ?5?$DN?5?$CFd?5?$CFs?6?$AA@
	call	DWORD PTR __imp__printf
	add	esp, 12					; 0000000cH
	cmp	esi, esp
	call	__RTC_CheckEsp
; Line 42
	lea	eax, DWORD PTR _address$[ebp]
	push	eax
	call	_strlen
	add	esp, 4
	cmp	eax, 3
	jbe	$LN19@main
; Line 43
	push	92					; 0000005cH
	lea	eax, DWORD PTR _address$[ebp+2]
	push	eax
	call	?strchr@@YAPADPADH@Z			; strchr
	add	esp, 8
	mov	DWORD PTR _ps$103154[ebp], eax
	cmp	DWORD PTR _ps$103154[ebp], 0
	je	$LN19@main
; Line 44
	mov	eax, DWORD PTR _ps$103154[ebp]
	mov	BYTE PTR [eax], 0
; Line 45
	lea	eax, DWORD PTR _address$[ebp+2]
	mov	DWORD PTR _ps$103154[ebp], eax
; Line 46
	lea	eax, DWORD PTR _address3$[ebp]
	push	eax
	mov	ecx, DWORD PTR _ps$103154[ebp]
	push	ecx
	call	?GetHostIP@@YAPADPAD0@Z			; GetHostIP
	add	esp, 8
; Line 47
	lea	eax, DWORD PTR _address2$[ebp]
	push	eax
	lea	ecx, DWORD PTR _address3$[ebp]
	push	ecx
	call	_strcmp
	add	esp, 8
	test	eax, eax
	jne	SHORT $LN19@main
; Line 48
	mov	esi, esp
	push	0
	lea	eax, DWORD PTR _buf$[ebp]
	push	eax
	call	DWORD PTR __imp___access
	add	esp, 8
	cmp	esi, esp
	call	__RTC_CheckEsp
	test	eax, eax
	jne	SHORT $LN16@main
; Line 50
	mov	esi, esp
	push	OFFSET ??_C@_03COCAMHHC@if?6?$AA@
	call	DWORD PTR __imp__printf
	add	esp, 4
	cmp	esi, esp
	call	__RTC_CheckEsp
; Line 52
	jmp	SHORT $LN19@main
$LN16@main:
; Line 53
	mov	esi, esp
	push	OFFSET ??_C@_05IHLPLEMK@else?6?$AA@
	call	DWORD PTR __imp__printf
	add	esp, 4
	cmp	esi, esp
	call	__RTC_CheckEsp
$LN19@main:
; Line 56
	jmp	SHORT $LN14@main
$LN20@main:
; Line 57
	mov	esi, esp
	mov	eax, DWORD PTR _ret$[ebp]
	push	eax
	push	OFFSET ??_C@_09EEGCEPDM@ret?5?$DN?5?$CFd?6?$AA@
	call	DWORD PTR __imp__printf
	add	esp, 8
	cmp	esi, esp
	call	__RTC_CheckEsp
$LN14@main:
; Line 59
	cmp	DWORD PTR _ret$[ebp], 1200		; 000004b0H
	jne	SHORT $LN13@main
; Line 60
	mov	esi, esp
	push	OFFSET ??_C@_0BC@KBEGCELM@ERROR_BAD_DEVICE?6?$AA@
	call	DWORD PTR __imp__printf
	add	esp, 4
	cmp	esi, esp
	call	__RTC_CheckEsp
	jmp	$LN12@main
$LN13@main:
; Line 61
	cmp	DWORD PTR _ret$[ebp], 2250		; 000008caH
	jne	SHORT $LN11@main
; Line 62
	mov	esi, esp
	push	OFFSET ??_C@_0BF@KIKCPGEG@ERROR_NOT_CONNECTED?6?$AA@
	call	DWORD PTR __imp__printf
	add	esp, 4
	cmp	esi, esp
	call	__RTC_CheckEsp
	jmp	$LN12@main
$LN11@main:
; Line 63
	cmp	DWORD PTR _ret$[ebp], 234		; 000000eaH
	jne	SHORT $LN9@main
; Line 64
	mov	esi, esp
	push	OFFSET ??_C@_0BB@GCKBKBDH@ERROR_MORE_DATA?6?$AA@
	call	DWORD PTR __imp__printf
	add	esp, 4
	cmp	esi, esp
	call	__RTC_CheckEsp
	jmp	$LN12@main
$LN9@main:
; Line 65
	cmp	DWORD PTR _ret$[ebp], 1201		; 000004b1H
	jne	SHORT $LN7@main
; Line 66
	mov	esi, esp
	push	OFFSET ??_C@_0BK@HFPGIGPH@ERROR_CONNECTION_UNAVAIL?6?$AA@
	call	DWORD PTR __imp__printf
	add	esp, 4
	cmp	esi, esp
	call	__RTC_CheckEsp
	jmp	SHORT $LN12@main
$LN7@main:
; Line 67
	cmp	DWORD PTR _ret$[ebp], 1222		; 000004c6H
	jne	SHORT $LN5@main
; Line 68
	mov	esi, esp
	push	OFFSET ??_C@_0BC@DJOLMCAH@ERROR_NO_NETWORK?6?$AA@
	call	DWORD PTR __imp__printf
	add	esp, 4
	cmp	esi, esp
	call	__RTC_CheckEsp
	jmp	SHORT $LN12@main
$LN5@main:
; Line 69
	cmp	DWORD PTR _ret$[ebp], 1208		; 000004b8H
	jne	SHORT $LN3@main
; Line 70
	mov	esi, esp
	push	OFFSET ??_C@_0BG@IBMEGKFB@ERROR_EXTENDED_ERROR?6?$AA@
	call	DWORD PTR __imp__printf
	add	esp, 4
	cmp	esi, esp
	call	__RTC_CheckEsp
	jmp	SHORT $LN12@main
$LN3@main:
; Line 71
	cmp	DWORD PTR _ret$[ebp], 1203		; 000004b3H
	jne	SHORT $LN12@main
; Line 72
	mov	esi, esp
	push	OFFSET ??_C@_0BK@DJFJMPCC@ERROR_NO_NET_OR_BAD_PATH?6?$AA@
	call	DWORD PTR __imp__printf
	add	esp, 4
	cmp	esi, esp
	call	__RTC_CheckEsp
$LN12@main:
; Line 74
	push	OFFSET ??_C@_06MOMOJMIE@E?3?2dus?$AA@
	call	?ExploreFile@@YAKPAD@Z			; ExploreFile
	add	esp, 4
; Line 75
	mov	esi, esp
	push	OFFSET ??_C@_05PDJBBECF@pause?$AA@
	call	DWORD PTR __imp__system
	add	esp, 4
	cmp	esi, esp
	call	__RTC_CheckEsp
; Line 76
	xor	eax, eax
; Line 77
	push	edx
	mov	ecx, ebp
	push	eax
	lea	edx, DWORD PTR $LN31@main
	call	@_RTC_CheckStackVars@8
	pop	eax
	pop	edx
	pop	edi
	pop	esi
	pop	ebx
	mov	ecx, DWORD PTR __$ArrayPad$[ebp]
	xor	ecx, ebp
	call	@__security_check_cookie@4
	add	esp, 1164				; 0000048cH
	cmp	ebp, esp
	call	__RTC_CheckEsp
	mov	esp, ebp
	pop	ebp
	ret	0
	npad	2
$LN31@main:
	DD	7
	DD	$LN30@main
$LN30@main:
	DD	-136					; ffffff78H
	DD	128					; 00000080H
	DD	$LN23@main
	DD	-272					; fffffef0H
	DD	128					; 00000080H
	DD	$LN24@main
	DD	-408					; fffffe68H
	DD	128					; 00000080H
	DD	$LN25@main
	DD	-428					; fffffe54H
	DD	10					; 0000000aH
	DD	$LN26@main
	DD	-440					; fffffe48H
	DD	4
	DD	$LN27@main
	DD	-512					; fffffe00H
	DD	64					; 00000040H
	DD	$LN28@main
	DD	-944					; fffffc50H
	DD	400					; 00000190H
	DD	$LN29@main
$LN29@main:
	DB	87					; 00000057H
	DB	83					; 00000053H
	DB	65					; 00000041H
	DB	68					; 00000044H
	DB	97					; 00000061H
	DB	116					; 00000074H
	DB	97					; 00000061H
	DB	0
$LN28@main:
	DB	73					; 00000049H
	DB	80					; 00000050H
	DB	0
$LN27@main:
	DB	108					; 0000006cH
	DB	101					; 00000065H
	DB	110					; 0000006eH
	DB	0
$LN26@main:
	DB	98					; 00000062H
	DB	117					; 00000075H
	DB	102					; 00000066H
	DB	0
$LN25@main:
	DB	97					; 00000061H
	DB	100					; 00000064H
	DB	100					; 00000064H
	DB	114					; 00000072H
	DB	101					; 00000065H
	DB	115					; 00000073H
	DB	115					; 00000073H
	DB	51					; 00000033H
	DB	0
$LN24@main:
	DB	97					; 00000061H
	DB	100					; 00000064H
	DB	100					; 00000064H
	DB	114					; 00000072H
	DB	101					; 00000065H
	DB	115					; 00000073H
	DB	115					; 00000073H
	DB	50					; 00000032H
	DB	0
$LN23@main:
	DB	97					; 00000061H
	DB	100					; 00000064H
	DB	100					; 00000064H
	DB	114					; 00000072H
	DB	101					; 00000065H
	DB	115					; 00000073H
	DB	115					; 00000073H
	DB	0
_main	ENDP
_TEXT	ENDS
EXTRN	__imp__strchr:PROC
; Function compile flags: /Odtp /RTCsu /ZI
;	COMDAT ?strchr@@YAPADPADH@Z
_TEXT	SEGMENT
__Str$ = 8						; size = 4
__Ch$ = 12						; size = 4
?strchr@@YAPADPADH@Z PROC				; strchr, COMDAT
; File d:\program files (x86)\microsoft visual studio 10.0\vc\include\string.h
; Line 215
	push	ebp
	mov	ebp, esp
	sub	esp, 192				; 000000c0H
	push	ebx
	push	esi
	push	edi
	lea	edi, DWORD PTR [ebp-192]
	mov	ecx, 48					; 00000030H
	mov	eax, -858993460				; ccccccccH
	rep stosd
	mov	esi, esp
	mov	eax, DWORD PTR __Ch$[ebp]
	push	eax
	mov	ecx, DWORD PTR __Str$[ebp]
	push	ecx
	call	DWORD PTR __imp__strchr
	add	esp, 8
	cmp	esi, esp
	call	__RTC_CheckEsp
	pop	edi
	pop	esi
	pop	ebx
	add	esp, 192				; 000000c0H
	cmp	ebp, esp
	call	__RTC_CheckEsp
	mov	esp, ebp
	pop	ebp
	ret	0
?strchr@@YAPADPADH@Z ENDP				; strchr
_TEXT	ENDS
EXTRN	__imp__strcpy_s:PROC
EXTRN	_inet_ntoa@4:PROC
EXTRN	_memcpy:PROC
EXTRN	__imp__strncpy_s:PROC
EXTRN	_gethostbyname@4:PROC
_BSS	SEGMENT
?sip@?1??GetHostIP@@YAPADPAD0@Z@4PADA DB 040H DUP (?)	; `GetHostIP'::`2'::sip
; Function compile flags: /Odtp /RTCsu /ZI
_BSS	ENDS
;	COMDAT ?GetHostIP@@YAPADPAD0@Z
_TEXT	SEGMENT
_pResult$ = -32						; size = 4
_ia$ = -20						; size = 4
_hn$ = -8						; size = 4
_hostname$ = 8						; size = 4
_IP$ = 12						; size = 4
?GetHostIP@@YAPADPAD0@Z PROC				; GetHostIP, COMDAT
; File e:\dus\branches\my_demo_code\center_storge\smbclient_win\smbclient_win\smbclient_win.cpp
; Line 78
	push	ebp
	mov	ebp, esp
	sub	esp, 228				; 000000e4H
	push	ebx
	push	esi
	push	edi
	lea	edi, DWORD PTR [ebp-228]
	mov	ecx, 57					; 00000039H
	mov	eax, -858993460				; ccccccccH
	rep stosd
; Line 83
	cmp	DWORD PTR _IP$[ebp], 0
	je	SHORT $LN4@GetHostIP
	mov	eax, DWORD PTR _IP$[ebp]
	mov	DWORD PTR _pResult$[ebp], eax
; Line 84
	jmp	SHORT $LN3@GetHostIP
$LN4@GetHostIP:
; Line 85
	mov	BYTE PTR ?sip@?1??GetHostIP@@YAPADPAD0@Z@4PADA, 0
; Line 86
	mov	DWORD PTR _pResult$[ebp], OFFSET ?sip@?1??GetHostIP@@YAPADPAD0@Z@4PADA
$LN3@GetHostIP:
; Line 88
	mov	eax, DWORD PTR _pResult$[ebp]
	mov	BYTE PTR [eax], 0
; Line 89
	cmp	DWORD PTR _hostname$[ebp], 0
	jne	SHORT $LN2@GetHostIP
	mov	eax, DWORD PTR _pResult$[ebp]
	jmp	SHORT $LN5@GetHostIP
$LN2@GetHostIP:
; Line 90
	mov	eax, DWORD PTR _hostname$[ebp]
	push	eax
	call	_gethostbyname@4
	mov	DWORD PTR _hn$[ebp], eax
; Line 91
	cmp	DWORD PTR _hn$[ebp], 0
	jne	SHORT $LN1@GetHostIP
; Line 92
	mov	esi, esp
	push	32					; 00000020H
	mov	eax, DWORD PTR _hostname$[ebp]
	push	eax
	push	32					; 00000020H
	mov	ecx, DWORD PTR _pResult$[ebp]
	push	ecx
	call	DWORD PTR __imp__strncpy_s
	add	esp, 16					; 00000010H
	cmp	esi, esp
	call	__RTC_CheckEsp
; Line 93
	mov	eax, DWORD PTR _pResult$[ebp]
	mov	BYTE PTR [eax+32], 0
; Line 94
	mov	eax, DWORD PTR _pResult$[ebp]
	jmp	SHORT $LN5@GetHostIP
$LN1@GetHostIP:
; Line 96
	mov	eax, DWORD PTR _hn$[ebp]
	movsx	ecx, WORD PTR [eax+10]
	push	ecx
	mov	edx, DWORD PTR _hn$[ebp]
	mov	eax, DWORD PTR [edx+12]
	mov	ecx, DWORD PTR [eax]
	push	ecx
	lea	edx, DWORD PTR _ia$[ebp]
	push	edx
	call	_memcpy
	add	esp, 12					; 0000000cH
; Line 97
	mov	eax, DWORD PTR _ia$[ebp]
	push	eax
	call	_inet_ntoa@4
	mov	esi, esp
	push	eax
	push	32					; 00000020H
	mov	ecx, DWORD PTR _pResult$[ebp]
	push	ecx
	call	DWORD PTR __imp__strcpy_s
	add	esp, 12					; 0000000cH
	cmp	esi, esp
	call	__RTC_CheckEsp
; Line 98
	mov	eax, DWORD PTR _pResult$[ebp]
$LN5@GetHostIP:
; Line 99
	push	edx
	mov	ecx, ebp
	push	eax
	lea	edx, DWORD PTR $LN9@GetHostIP
	call	@_RTC_CheckStackVars@8
	pop	eax
	pop	edx
	pop	edi
	pop	esi
	pop	ebx
	add	esp, 228				; 000000e4H
	cmp	ebp, esp
	call	__RTC_CheckEsp
	mov	esp, ebp
	pop	ebp
	ret	0
	npad	2
$LN9@GetHostIP:
	DD	1
	DD	$LN8@GetHostIP
$LN8@GetHostIP:
	DD	-20					; ffffffecH
	DD	4
	DD	$LN7@GetHostIP
$LN7@GetHostIP:
	DB	105					; 00000069H
	DB	97					; 00000061H
	DB	0
?GetHostIP@@YAPADPAD0@Z ENDP				; GetHostIP
_TEXT	ENDS
PUBLIC	??_C@_0BD@DJJHNPAN@?$CFs?2explorer?4exe?5?$CFs?$AA@ ; `string'
PUBLIC	__$ArrayPad$
EXTRN	__imp__CreateProcessA@40:PROC
EXTRN	__imp__sprintf:PROC
EXTRN	__imp__GetWindowsDirectoryA@8:PROC
EXTRN	_memset:PROC
;	COMDAT ??_C@_0BD@DJJHNPAN@?$CFs?2explorer?4exe?5?$CFs?$AA@
CONST	SEGMENT
??_C@_0BD@DJJHNPAN@?$CFs?2explorer?4exe?5?$CFs?$AA@ DB '%s\explorer.exe %'
	DB	's', 00H					; `string'
; Function compile flags: /Odtp /RTCsu /ZI
CONST	ENDS
;	COMDAT ?ExploreFile@@YAKPAD@Z
_TEXT	SEGMENT
_mpi$ = -1652						; size = 16
_msi$ = -1628						; size = 68
_mcmd$ = -1552						; size = 1024
_mwindir$ = -520					; size = 512
__$ArrayPad$ = -4					; size = 4
_path$ = 8						; size = 4
?ExploreFile@@YAKPAD@Z PROC				; ExploreFile, COMDAT
; Line 105
	push	ebp
	mov	ebp, esp
	sub	esp, 1848				; 00000738H
	push	ebx
	push	esi
	push	edi
	lea	edi, DWORD PTR [ebp-1848]
	mov	ecx, 462				; 000001ceH
	mov	eax, -858993460				; ccccccccH
	rep stosd
	mov	eax, DWORD PTR ___security_cookie
	xor	eax, ebp
	mov	DWORD PTR __$ArrayPad$[ebp], eax
; Line 109
	push	512					; 00000200H
	push	0
	lea	eax, DWORD PTR _mwindir$[ebp]
	push	eax
	call	_memset
	add	esp, 12					; 0000000cH
; Line 110
	mov	esi, esp
	push	512					; 00000200H
	lea	eax, DWORD PTR _mwindir$[ebp]
	push	eax
	call	DWORD PTR __imp__GetWindowsDirectoryA@8
	cmp	esi, esp
	call	__RTC_CheckEsp
; Line 111
	push	1024					; 00000400H
	push	0
	lea	eax, DWORD PTR _mcmd$[ebp]
	push	eax
	call	_memset
	add	esp, 12					; 0000000cH
; Line 113
	mov	esi, esp
	mov	eax, DWORD PTR _path$[ebp]
	push	eax
	lea	ecx, DWORD PTR _mwindir$[ebp]
	push	ecx
	push	OFFSET ??_C@_0BD@DJJHNPAN@?$CFs?2explorer?4exe?5?$CFs?$AA@
	lea	edx, DWORD PTR _mcmd$[ebp]
	push	edx
	call	DWORD PTR __imp__sprintf
	add	esp, 16					; 00000010H
	cmp	esi, esp
	call	__RTC_CheckEsp
; Line 120
	push	68					; 00000044H
	push	0
	lea	eax, DWORD PTR _msi$[ebp]
	push	eax
	call	_memset
	add	esp, 12					; 0000000cH
; Line 122
	push	16					; 00000010H
	push	0
	lea	eax, DWORD PTR _mpi$[ebp]
	push	eax
	call	_memset
	add	esp, 12					; 0000000cH
; Line 125
	mov	esi, esp
	lea	eax, DWORD PTR _mpi$[ebp]
	push	eax
	lea	ecx, DWORD PTR _msi$[ebp]
	push	ecx
	push	0
	push	0
	push	8
	push	0
	push	0
	push	0
	lea	edx, DWORD PTR _mcmd$[ebp]
	push	edx
	push	0
	call	DWORD PTR __imp__CreateProcessA@40
	cmp	esi, esp
	call	__RTC_CheckEsp
; Line 126
	mov	eax, DWORD PTR _mpi$[ebp+8]
; Line 128
	push	edx
	mov	ecx, ebp
	push	eax
	lea	edx, DWORD PTR $LN8@ExploreFil
	call	@_RTC_CheckStackVars@8
	pop	eax
	pop	edx
	pop	edi
	pop	esi
	pop	ebx
	mov	ecx, DWORD PTR __$ArrayPad$[ebp]
	xor	ecx, ebp
	call	@__security_check_cookie@4
	add	esp, 1848				; 00000738H
	cmp	ebp, esp
	call	__RTC_CheckEsp
	mov	esp, ebp
	pop	ebp
	ret	0
	npad	3
$LN8@ExploreFil:
	DD	4
	DD	$LN7@ExploreFil
$LN7@ExploreFil:
	DD	-520					; fffffdf8H
	DD	512					; 00000200H
	DD	$LN3@ExploreFil
	DD	-1552					; fffff9f0H
	DD	1024					; 00000400H
	DD	$LN4@ExploreFil
	DD	-1628					; fffff9a4H
	DD	68					; 00000044H
	DD	$LN5@ExploreFil
	DD	-1652					; fffff98cH
	DD	16					; 00000010H
	DD	$LN6@ExploreFil
$LN6@ExploreFil:
	DB	109					; 0000006dH
	DB	112					; 00000070H
	DB	105					; 00000069H
	DB	0
$LN5@ExploreFil:
	DB	109					; 0000006dH
	DB	115					; 00000073H
	DB	105					; 00000069H
	DB	0
$LN4@ExploreFil:
	DB	109					; 0000006dH
	DB	99					; 00000063H
	DB	109					; 0000006dH
	DB	100					; 00000064H
	DB	0
$LN3@ExploreFil:
	DB	109					; 0000006dH
	DB	119					; 00000077H
	DB	105					; 00000069H
	DB	110					; 0000006eH
	DB	100					; 00000064H
	DB	105					; 00000069H
	DB	114					; 00000072H
	DB	0
?ExploreFile@@YAKPAD@Z ENDP				; ExploreFile
; Function compile flags: /Odtp /RTCsu /ZI
_TEXT	ENDS
;	COMDAT ??$strcpy_s@$0EA@@@YAHAAY0EA@DPBD@Z
_TEXT	SEGMENT
__Dest$ = 8						; size = 4
__Source$ = 12						; size = 4
??$strcpy_s@$0EA@@@YAHAAY0EA@DPBD@Z PROC		; strcpy_s<64>, COMDAT
; File d:\program files (x86)\microsoft visual studio 10.0\vc\include\string.h
; Line 104
	push	ebp
	mov	ebp, esp
	sub	esp, 192				; 000000c0H
	push	ebx
	push	esi
	push	edi
	lea	edi, DWORD PTR [ebp-192]
	mov	ecx, 48					; 00000030H
	mov	eax, -858993460				; ccccccccH
	rep stosd
	mov	esi, esp
	mov	eax, DWORD PTR __Source$[ebp]
	push	eax
	push	64					; 00000040H
	mov	ecx, DWORD PTR __Dest$[ebp]
	push	ecx
	call	DWORD PTR __imp__strcpy_s
	add	esp, 12					; 0000000cH
	cmp	esi, esp
	call	__RTC_CheckEsp
	pop	edi
	pop	esi
	pop	ebx
	add	esp, 192				; 000000c0H
	cmp	ebp, esp
	call	__RTC_CheckEsp
	mov	esp, ebp
	pop	ebp
	ret	0
??$strcpy_s@$0EA@@@YAHAAY0EA@DPBD@Z ENDP		; strcpy_s<64>
; Function compile flags: /Odtp /RTCsu /ZI
_TEXT	ENDS
;	COMDAT ??$strcpy_s@$09@@YAHAAY09DPBD@Z
_TEXT	SEGMENT
__Dest$ = 8						; size = 4
__Source$ = 12						; size = 4
??$strcpy_s@$09@@YAHAAY09DPBD@Z PROC			; strcpy_s<10>, COMDAT
; Line 104
	push	ebp
	mov	ebp, esp
	sub	esp, 192				; 000000c0H
	push	ebx
	push	esi
	push	edi
	lea	edi, DWORD PTR [ebp-192]
	mov	ecx, 48					; 00000030H
	mov	eax, -858993460				; ccccccccH
	rep stosd
	mov	esi, esp
	mov	eax, DWORD PTR __Source$[ebp]
	push	eax
	push	10					; 0000000aH
	mov	ecx, DWORD PTR __Dest$[ebp]
	push	ecx
	call	DWORD PTR __imp__strcpy_s
	add	esp, 12					; 0000000cH
	cmp	esi, esp
	call	__RTC_CheckEsp
	pop	edi
	pop	esi
	pop	ebx
	add	esp, 192				; 000000c0H
	cmp	ebp, esp
	call	__RTC_CheckEsp
	mov	esp, ebp
	pop	ebp
	ret	0
??$strcpy_s@$09@@YAHAAY09DPBD@Z ENDP			; strcpy_s<10>
; Function compile flags: /Odtp /RTCsu /ZI
_TEXT	ENDS
;	COMDAT ??__Eclash@Inconsistent_definition_of_symbol__ATL_MIXED@@YAXXZ
text$yc	SEGMENT
$T105056 = -197						; size = 1
??__Eclash@Inconsistent_definition_of_symbol__ATL_MIXED@@YAXXZ PROC ; Inconsistent_definition_of_symbol__ATL_MIXED::`dynamic initializer for 'clash'', COMDAT
; File d:\program files (x86)\microsoft visual studio 10.0\vc\atlmfc\include\atldef.h
; Line 65
	push	ebp
	mov	ebp, esp
	sub	esp, 204				; 000000ccH
	push	ebx
	push	esi
	push	edi
	lea	edi, DWORD PTR [ebp-204]
	mov	ecx, 51					; 00000033H
	mov	eax, -858993460				; ccccccccH
	rep stosd
	xor	eax, eax
	mov	BYTE PTR $T105056[ebp], al
	pop	edi
	pop	esi
	pop	ebx
	mov	esp, ebp
	pop	ebp
	ret	0
??__Eclash@Inconsistent_definition_of_symbol__ATL_MIXED@@YAXXZ ENDP ; Inconsistent_definition_of_symbol__ATL_MIXED::`dynamic initializer for 'clash''
text$yc	ENDS
PUBLIC	??0Thank_you@Define_the_symbol__ATL_MIXED@@QAE@XZ ; Define_the_symbol__ATL_MIXED::Thank_you::Thank_you
; Function compile flags: /Odtp /RTCsu /ZI
;	COMDAT ??__Eclash@Define_the_symbol__ATL_MIXED@@YAXXZ
text$yc	SEGMENT
??__Eclash@Define_the_symbol__ATL_MIXED@@YAXXZ PROC	; Define_the_symbol__ATL_MIXED::`dynamic initializer for 'clash'', COMDAT
; Line 81
	push	ebp
	mov	ebp, esp
	sub	esp, 192				; 000000c0H
	push	ebx
	push	esi
	push	edi
	lea	edi, DWORD PTR [ebp-192]
	mov	ecx, 48					; 00000030H
	mov	eax, -858993460				; ccccccccH
	rep stosd
	mov	ecx, OFFSET ?clash@Define_the_symbol__ATL_MIXED@@3UThank_you@1@A ; Define_the_symbol__ATL_MIXED::clash
	call	??0Thank_you@Define_the_symbol__ATL_MIXED@@QAE@XZ
	pop	edi
	pop	esi
	pop	ebx
	add	esp, 192				; 000000c0H
	cmp	ebp, esp
	call	__RTC_CheckEsp
	mov	esp, ebp
	pop	ebp
	ret	0
??__Eclash@Define_the_symbol__ATL_MIXED@@YAXXZ ENDP	; Define_the_symbol__ATL_MIXED::`dynamic initializer for 'clash''
text$yc	ENDS
PUBLIC	??_7Thank_you@Define_the_symbol__ATL_MIXED@@6B@	; Define_the_symbol__ATL_MIXED::Thank_you::`vftable'
PUBLIC	??_R4Thank_you@Define_the_symbol__ATL_MIXED@@6B@ ; Define_the_symbol__ATL_MIXED::Thank_you::`RTTI Complete Object Locator'
PUBLIC	??_R0?AUThank_you@Define_the_symbol__ATL_MIXED@@@8 ; Define_the_symbol__ATL_MIXED::Thank_you `RTTI Type Descriptor'
PUBLIC	??_R3Thank_you@Define_the_symbol__ATL_MIXED@@8	; Define_the_symbol__ATL_MIXED::Thank_you::`RTTI Class Hierarchy Descriptor'
PUBLIC	??_R2Thank_you@Define_the_symbol__ATL_MIXED@@8	; Define_the_symbol__ATL_MIXED::Thank_you::`RTTI Base Class Array'
PUBLIC	??_R1A@?0A@EA@Thank_you@Define_the_symbol__ATL_MIXED@@8 ; Define_the_symbol__ATL_MIXED::Thank_you::`RTTI Base Class Descriptor at (0,-1,0,64)'
PUBLIC	?one@Thank_you@Define_the_symbol__ATL_MIXED@@UAEXXZ ; Define_the_symbol__ATL_MIXED::Thank_you::one
EXTRN	??_7type_info@@6B@:QWORD			; type_info::`vftable'
;	COMDAT ??_R1A@?0A@EA@Thank_you@Define_the_symbol__ATL_MIXED@@8
rdata$r	SEGMENT
??_R1A@?0A@EA@Thank_you@Define_the_symbol__ATL_MIXED@@8 DD FLAT:??_R0?AUThank_you@Define_the_symbol__ATL_MIXED@@@8 ; Define_the_symbol__ATL_MIXED::Thank_you::`RTTI Base Class Descriptor at (0,-1,0,64)'
	DD	00H
	DD	00H
	DD	0ffffffffH
	DD	00H
	DD	040H
	DD	FLAT:??_R3Thank_you@Define_the_symbol__ATL_MIXED@@8
rdata$r	ENDS
;	COMDAT ??_R2Thank_you@Define_the_symbol__ATL_MIXED@@8
rdata$r	SEGMENT
??_R2Thank_you@Define_the_symbol__ATL_MIXED@@8 DD FLAT:??_R1A@?0A@EA@Thank_you@Define_the_symbol__ATL_MIXED@@8 ; Define_the_symbol__ATL_MIXED::Thank_you::`RTTI Base Class Array'
rdata$r	ENDS
;	COMDAT ??_R3Thank_you@Define_the_symbol__ATL_MIXED@@8
rdata$r	SEGMENT
??_R3Thank_you@Define_the_symbol__ATL_MIXED@@8 DD 00H	; Define_the_symbol__ATL_MIXED::Thank_you::`RTTI Class Hierarchy Descriptor'
	DD	00H
	DD	01H
	DD	FLAT:??_R2Thank_you@Define_the_symbol__ATL_MIXED@@8
rdata$r	ENDS
;	COMDAT ??_R0?AUThank_you@Define_the_symbol__ATL_MIXED@@@8
_DATA	SEGMENT
??_R0?AUThank_you@Define_the_symbol__ATL_MIXED@@@8 DD FLAT:??_7type_info@@6B@ ; Define_the_symbol__ATL_MIXED::Thank_you `RTTI Type Descriptor'
	DD	00H
	DB	'.?AUThank_you@Define_the_symbol__ATL_MIXED@@', 00H
_DATA	ENDS
;	COMDAT ??_R4Thank_you@Define_the_symbol__ATL_MIXED@@6B@
rdata$r	SEGMENT
??_R4Thank_you@Define_the_symbol__ATL_MIXED@@6B@ DD 00H	; Define_the_symbol__ATL_MIXED::Thank_you::`RTTI Complete Object Locator'
	DD	00H
	DD	00H
	DD	FLAT:??_R0?AUThank_you@Define_the_symbol__ATL_MIXED@@@8
	DD	FLAT:??_R3Thank_you@Define_the_symbol__ATL_MIXED@@8
rdata$r	ENDS
;	COMDAT ??_7Thank_you@Define_the_symbol__ATL_MIXED@@6B@
CONST	SEGMENT
??_7Thank_you@Define_the_symbol__ATL_MIXED@@6B@ DD FLAT:??_R4Thank_you@Define_the_symbol__ATL_MIXED@@6B@ ; Define_the_symbol__ATL_MIXED::Thank_you::`vftable'
	DD	FLAT:?one@Thank_you@Define_the_symbol__ATL_MIXED@@UAEXXZ
; Function compile flags: /Odtp /RTCsu /ZI
CONST	ENDS
;	COMDAT ??0Thank_you@Define_the_symbol__ATL_MIXED@@QAE@XZ
_TEXT	SEGMENT
_this$ = -8						; size = 4
??0Thank_you@Define_the_symbol__ATL_MIXED@@QAE@XZ PROC	; Define_the_symbol__ATL_MIXED::Thank_you::Thank_you, COMDAT
; _this$ = ecx
	push	ebp
	mov	ebp, esp
	sub	esp, 204				; 000000ccH
	push	ebx
	push	esi
	push	edi
	push	ecx
	lea	edi, DWORD PTR [ebp-204]
	mov	ecx, 51					; 00000033H
	mov	eax, -858993460				; ccccccccH
	rep stosd
	pop	ecx
	mov	DWORD PTR _this$[ebp], ecx
	mov	eax, DWORD PTR _this$[ebp]
	mov	DWORD PTR [eax], OFFSET ??_7Thank_you@Define_the_symbol__ATL_MIXED@@6B@
	mov	eax, DWORD PTR _this$[ebp]
	pop	edi
	pop	esi
	pop	ebx
	mov	esp, ebp
	pop	ebp
	ret	0
??0Thank_you@Define_the_symbol__ATL_MIXED@@QAE@XZ ENDP	; Define_the_symbol__ATL_MIXED::Thank_you::Thank_you
; Function compile flags: /Odtp /RTCsu /ZI
_TEXT	ENDS
;	COMDAT ?one@Thank_you@Define_the_symbol__ATL_MIXED@@UAEXXZ
_TEXT	SEGMENT
_this$ = -8						; size = 4
?one@Thank_you@Define_the_symbol__ATL_MIXED@@UAEXXZ PROC ; Define_the_symbol__ATL_MIXED::Thank_you::one, COMDAT
; _this$ = ecx
; Line 79
	push	ebp
	mov	ebp, esp
	sub	esp, 204				; 000000ccH
	push	ebx
	push	esi
	push	edi
	push	ecx
	lea	edi, DWORD PTR [ebp-204]
	mov	ecx, 51					; 00000033H
	mov	eax, -858993460				; ccccccccH
	rep stosd
	pop	ecx
	mov	DWORD PTR _this$[ebp], ecx
	pop	edi
	pop	esi
	pop	ebx
	mov	esp, ebp
	pop	ebp
	ret	0
?one@Thank_you@Define_the_symbol__ATL_MIXED@@UAEXXZ ENDP ; Define_the_symbol__ATL_MIXED::Thank_you::one
_TEXT	ENDS
PUBLIC	?clash@Define_the_symbol__ATL_MIXED@@3UThank_you@1@A ; Define_the_symbol__ATL_MIXED::clash
PUBLIC	?clash@Inconsistent_definition_of_symbol__ATL_MIXED@@3U_Please_define_it_the_same_throughout_your_project@1@A ; Inconsistent_definition_of_symbol__ATL_MIXED::clash
;	COMDAT ?clash@Define_the_symbol__ATL_MIXED@@3UThank_you@1@A
_BSS	SEGMENT
?clash@Define_the_symbol__ATL_MIXED@@3UThank_you@1@A DD 01H DUP (?) ; Define_the_symbol__ATL_MIXED::clash
_BSS	ENDS
;	COMDAT ?clash@Inconsistent_definition_of_symbol__ATL_MIXED@@3U_Please_define_it_the_same_throughout_your_project@1@A
_BSS	SEGMENT
?clash@Inconsistent_definition_of_symbol__ATL_MIXED@@3U_Please_define_it_the_same_throughout_your_project@1@A DB 01H DUP (?) ; Inconsistent_definition_of_symbol__ATL_MIXED::clash
_BSS	ENDS
;	COMDAT CRT$XCU
CRT$XCU	SEGMENT
_clash$initializer$ DD FLAT:??__Eclash@Inconsistent_definition_of_symbol__ATL_MIXED@@YAXXZ
CRT$XCU	ENDS
;	COMDAT CRT$XCU
CRT$XCU	SEGMENT
_clash$initializer$ DD FLAT:??__Eclash@Define_the_symbol__ATL_MIXED@@YAXXZ
CRT$XCU	ENDS
END
